Component: ARM Compiler 5.06 update 5 (build 528) Tool: armlink [4d35e2]

==============================================================================

Section Cross References

    startup_stm32f10x_md.o(STACK) refers (Special) to heapauxi.o(.text) for __use_two_region_memory
    startup_stm32f10x_md.o(HEAP) refers (Special) to heapauxi.o(.text) for __use_two_region_memory
    startup_stm32f10x_md.o(RESET) refers (Special) to heapauxi.o(.text) for __use_two_region_memory
    startup_stm32f10x_md.o(RESET) refers to startup_stm32f10x_md.o(STACK) for __initial_sp
    startup_stm32f10x_md.o(RESET) refers to startup_stm32f10x_md.o(.text) for Reset_Handler
    startup_stm32f10x_md.o(RESET) refers to stm32f10x_it.o(i.NMI_Handler) for NMI_Handler
    startup_stm32f10x_md.o(RESET) refers to stm32f10x_it.o(i.HardFault_Handler) for HardFault_Handler
    startup_stm32f10x_md.o(RESET) refers to stm32f10x_it.o(i.MemManage_Handler) for MemManage_Handler
    startup_stm32f10x_md.o(RESET) refers to stm32f10x_it.o(i.BusFault_Handler) for BusFault_Handler
    startup_stm32f10x_md.o(RESET) refers to stm32f10x_it.o(i.UsageFault_Handler) for UsageFault_Handler
    startup_stm32f10x_md.o(RESET) refers to stm32f10x_it.o(i.SVC_Handler) for SVC_Handler
    startup_stm32f10x_md.o(RESET) refers to stm32f10x_it.o(i.DebugMon_Handler) for DebugMon_Handler
    startup_stm32f10x_md.o(RESET) refers to stm32f10x_it.o(i.PendSV_Handler) for PendSV_Handler
    startup_stm32f10x_md.o(RESET) refers to stm32f10x_it.o(i.SysTick_Handler) for SysTick_Handler
    startup_stm32f10x_md.o(RESET) refers to main.o(i.TIM2_IRQHandler) for TIM2_IRQHandler
    startup_stm32f10x_md.o(.text) refers (Special) to heapauxi.o(.text) for __use_two_region_memory
    startup_stm32f10x_md.o(.text) refers to system_stm32f10x.o(i.SystemInit) for SystemInit
    startup_stm32f10x_md.o(.text) refers to __main.o(!!!main) for __main
    startup_stm32f10x_md.o(.text) refers to startup_stm32f10x_md.o(HEAP) for Heap_Mem
    startup_stm32f10x_md.o(.text) refers to startup_stm32f10x_md.o(STACK) for Stack_Mem
    system_stm32f10x.o(i.SetSysClock) refers to system_stm32f10x.o(i.SetSysClockTo72) for SetSysClockTo72
    system_stm32f10x.o(i.SystemCoreClockUpdate) refers to system_stm32f10x.o(.data) for SystemCoreClock
    system_stm32f10x.o(i.SystemInit) refers to system_stm32f10x.o(i.SetSysClock) for SetSysClock
    stm32f10x_adc.o(i.ADC_DeInit) refers to stm32f10x_rcc.o(i.RCC_APB2PeriphResetCmd) for RCC_APB2PeriphResetCmd
    stm32f10x_bkp.o(i.BKP_DeInit) refers to stm32f10x_rcc.o(i.RCC_BackupResetCmd) for RCC_BackupResetCmd
    stm32f10x_can.o(i.CAN_DeInit) refers to stm32f10x_rcc.o(i.RCC_APB1PeriphResetCmd) for RCC_APB1PeriphResetCmd
    stm32f10x_can.o(i.CAN_GetITStatus) refers to stm32f10x_can.o(i.CheckITStatus) for CheckITStatus
    stm32f10x_cec.o(i.CEC_DeInit) refers to stm32f10x_rcc.o(i.RCC_APB1PeriphResetCmd) for RCC_APB1PeriphResetCmd
    stm32f10x_dac.o(i.DAC_DeInit) refers to stm32f10x_rcc.o(i.RCC_APB1PeriphResetCmd) for RCC_APB1PeriphResetCmd
    stm32f10x_flash.o(i.FLASH_EnableWriteProtection) refers to stm32f10x_flash.o(i.FLASH_WaitForLastOperation) for FLASH_WaitForLastOperation
    stm32f10x_flash.o(i.FLASH_EraseAllBank1Pages) refers to stm32f10x_flash.o(i.FLASH_WaitForLastBank1Operation) for FLASH_WaitForLastBank1Operation
    stm32f10x_flash.o(i.FLASH_EraseAllPages) refers to stm32f10x_flash.o(i.FLASH_WaitForLastOperation) for FLASH_WaitForLastOperation
    stm32f10x_flash.o(i.FLASH_EraseOptionBytes) refers to stm32f10x_flash.o(i.FLASH_GetReadOutProtectionStatus) for FLASH_GetReadOutProtectionStatus
    stm32f10x_flash.o(i.FLASH_EraseOptionBytes) refers to stm32f10x_flash.o(i.FLASH_WaitForLastOperation) for FLASH_WaitForLastOperation
    stm32f10x_flash.o(i.FLASH_ErasePage) refers to stm32f10x_flash.o(i.FLASH_WaitForLastOperation) for FLASH_WaitForLastOperation
    stm32f10x_flash.o(i.FLASH_ProgramHalfWord) refers to stm32f10x_flash.o(i.FLASH_WaitForLastOperation) for FLASH_WaitForLastOperation
    stm32f10x_flash.o(i.FLASH_ProgramOptionByteData) refers to stm32f10x_flash.o(i.FLASH_WaitForLastOperation) for FLASH_WaitForLastOperation
    stm32f10x_flash.o(i.FLASH_ProgramWord) refers to stm32f10x_flash.o(i.FLASH_WaitForLastOperation) for FLASH_WaitForLastOperation
    stm32f10x_flash.o(i.FLASH_ReadOutProtection) refers to stm32f10x_flash.o(i.FLASH_WaitForLastOperation) for FLASH_WaitForLastOperation
    stm32f10x_flash.o(i.FLASH_UserOptionByteConfig) refers to stm32f10x_flash.o(i.FLASH_WaitForLastOperation) for FLASH_WaitForLastOperation
    stm32f10x_flash.o(i.FLASH_WaitForLastBank1Operation) refers to stm32f10x_flash.o(i.FLASH_GetBank1Status) for FLASH_GetBank1Status
    stm32f10x_flash.o(i.FLASH_WaitForLastOperation) refers to stm32f10x_flash.o(i.FLASH_GetBank1Status) for FLASH_GetBank1Status
    stm32f10x_gpio.o(i.GPIO_AFIODeInit) refers to stm32f10x_rcc.o(i.RCC_APB2PeriphResetCmd) for RCC_APB2PeriphResetCmd
    stm32f10x_gpio.o(i.GPIO_DeInit) refers to stm32f10x_rcc.o(i.RCC_APB2PeriphResetCmd) for RCC_APB2PeriphResetCmd
    stm32f10x_i2c.o(i.I2C_DeInit) refers to stm32f10x_rcc.o(i.RCC_APB1PeriphResetCmd) for RCC_APB1PeriphResetCmd
    stm32f10x_i2c.o(i.I2C_Init) refers to stm32f10x_rcc.o(i.RCC_GetClocksFreq) for RCC_GetClocksFreq
    stm32f10x_pwr.o(i.PWR_DeInit) refers to stm32f10x_rcc.o(i.RCC_APB1PeriphResetCmd) for RCC_APB1PeriphResetCmd
    stm32f10x_rcc.o(i.RCC_GetClocksFreq) refers to stm32f10x_rcc.o(.data) for APBAHBPrescTable
    stm32f10x_rcc.o(i.RCC_WaitForHSEStartUp) refers to stm32f10x_rcc.o(i.RCC_GetFlagStatus) for RCC_GetFlagStatus
    stm32f10x_rtc.o(i.RTC_SetAlarm) refers to stm32f10x_rtc.o(i.RTC_EnterConfigMode) for RTC_EnterConfigMode
    stm32f10x_rtc.o(i.RTC_SetAlarm) refers to stm32f10x_rtc.o(i.RTC_ExitConfigMode) for RTC_ExitConfigMode
    stm32f10x_rtc.o(i.RTC_SetCounter) refers to stm32f10x_rtc.o(i.RTC_EnterConfigMode) for RTC_EnterConfigMode
    stm32f10x_rtc.o(i.RTC_SetCounter) refers to stm32f10x_rtc.o(i.RTC_ExitConfigMode) for RTC_ExitConfigMode
    stm32f10x_rtc.o(i.RTC_SetPrescaler) refers to stm32f10x_rtc.o(i.RTC_EnterConfigMode) for RTC_EnterConfigMode
    stm32f10x_rtc.o(i.RTC_SetPrescaler) refers to stm32f10x_rtc.o(i.RTC_ExitConfigMode) for RTC_ExitConfigMode
    stm32f10x_spi.o(i.I2S_Init) refers to stm32f10x_rcc.o(i.RCC_GetClocksFreq) for RCC_GetClocksFreq
    stm32f10x_spi.o(i.SPI_I2S_DeInit) refers to stm32f10x_rcc.o(i.RCC_APB2PeriphResetCmd) for RCC_APB2PeriphResetCmd
    stm32f10x_spi.o(i.SPI_I2S_DeInit) refers to stm32f10x_rcc.o(i.RCC_APB1PeriphResetCmd) for RCC_APB1PeriphResetCmd
    stm32f10x_tim.o(i.TIM_DeInit) refers to stm32f10x_rcc.o(i.RCC_APB2PeriphResetCmd) for RCC_APB2PeriphResetCmd
    stm32f10x_tim.o(i.TIM_DeInit) refers to stm32f10x_rcc.o(i.RCC_APB1PeriphResetCmd) for RCC_APB1PeriphResetCmd
    stm32f10x_tim.o(i.TIM_ETRClockMode1Config) refers to stm32f10x_tim.o(i.TIM_ETRConfig) for TIM_ETRConfig
    stm32f10x_tim.o(i.TIM_ETRClockMode2Config) refers to stm32f10x_tim.o(i.TIM_ETRConfig) for TIM_ETRConfig
    stm32f10x_tim.o(i.TIM_ICInit) refers to stm32f10x_tim.o(i.TI1_Config) for TI1_Config
    stm32f10x_tim.o(i.TIM_ICInit) refers to stm32f10x_tim.o(i.TIM_SetIC1Prescaler) for TIM_SetIC1Prescaler
    stm32f10x_tim.o(i.TIM_ICInit) refers to stm32f10x_tim.o(i.TI2_Config) for TI2_Config
    stm32f10x_tim.o(i.TIM_ICInit) refers to stm32f10x_tim.o(i.TIM_SetIC2Prescaler) for TIM_SetIC2Prescaler
    stm32f10x_tim.o(i.TIM_ICInit) refers to stm32f10x_tim.o(i.TI3_Config) for TI3_Config
    stm32f10x_tim.o(i.TIM_ICInit) refers to stm32f10x_tim.o(i.TIM_SetIC3Prescaler) for TIM_SetIC3Prescaler
    stm32f10x_tim.o(i.TIM_ICInit) refers to stm32f10x_tim.o(i.TI4_Config) for TI4_Config
    stm32f10x_tim.o(i.TIM_ICInit) refers to stm32f10x_tim.o(i.TIM_SetIC4Prescaler) for TIM_SetIC4Prescaler
    stm32f10x_tim.o(i.TIM_ITRxExternalClockConfig) refers to stm32f10x_tim.o(i.TIM_SelectInputTrigger) for TIM_SelectInputTrigger
    stm32f10x_tim.o(i.TIM_PWMIConfig) refers to stm32f10x_tim.o(i.TI1_Config) for TI1_Config
    stm32f10x_tim.o(i.TIM_PWMIConfig) refers to stm32f10x_tim.o(i.TIM_SetIC1Prescaler) for TIM_SetIC1Prescaler
    stm32f10x_tim.o(i.TIM_PWMIConfig) refers to stm32f10x_tim.o(i.TI2_Config) for TI2_Config
    stm32f10x_tim.o(i.TIM_PWMIConfig) refers to stm32f10x_tim.o(i.TIM_SetIC2Prescaler) for TIM_SetIC2Prescaler
    stm32f10x_tim.o(i.TIM_TIxExternalClockConfig) refers to stm32f10x_tim.o(i.TI2_Config) for TI2_Config
    stm32f10x_tim.o(i.TIM_TIxExternalClockConfig) refers to stm32f10x_tim.o(i.TI1_Config) for TI1_Config
    stm32f10x_tim.o(i.TIM_TIxExternalClockConfig) refers to stm32f10x_tim.o(i.TIM_SelectInputTrigger) for TIM_SelectInputTrigger
    stm32f10x_usart.o(i.USART_DeInit) refers to stm32f10x_rcc.o(i.RCC_APB2PeriphResetCmd) for RCC_APB2PeriphResetCmd
    stm32f10x_usart.o(i.USART_DeInit) refers to stm32f10x_rcc.o(i.RCC_APB1PeriphResetCmd) for RCC_APB1PeriphResetCmd
    stm32f10x_usart.o(i.USART_Init) refers to stm32f10x_rcc.o(i.RCC_GetClocksFreq) for RCC_GetClocksFreq
    stm32f10x_wwdg.o(i.WWDG_DeInit) refers to stm32f10x_rcc.o(i.RCC_APB1PeriphResetCmd) for RCC_APB1PeriphResetCmd
    five_way_key.o(i.FiveKey_Num) refers to stm32f10x_gpio.o(i.GPIO_ReadInputDataBit) for GPIO_ReadInputDataBit
    five_way_key.o(i.FiveKey_Num) refers to five_way_key.o(.data) for KeyNum
    five_way_key.o(i.FiveWayKey_Init) refers to stm32f10x_rcc.o(i.RCC_APB2PeriphClockCmd) for RCC_APB2PeriphClockCmd
    five_way_key.o(i.FiveWayKey_Init) refers to stm32f10x_gpio.o(i.GPIO_Init) for GPIO_Init
    main.o(i.BT_func) refers to sprites_behaviortree.o(i.SpritesBT_Init) for SpritesBT_Init
    main.o(i.BT_func) refers to sprites_behaviortree.o(i.SpritesBT_Action) for SpritesBT_Action
    main.o(i.BT_func) refers to sprites_behaviortree.o(i.SpritesBT_MountToRoot) for SpritesBT_MountToRoot
    main.o(i.BT_func) refers to sprites_behaviortree.o(i.SpritesIT_Register) for SpritesIT_Register
    main.o(i.BT_func) refers to sprites_behaviortree.o(i.SpritesIT_Add) for SpritesIT_Add
    main.o(i.BT_func) refers to main.o(i.SBT_ExecuteHandle) for SBT_ExecuteHandle
    main.o(i.BT_func) refers to main.o(i.SIT_MapIndexHandle) for SIT_MapIndexHandle
    main.o(i.BT_func) refers to main.o(i.SBT_ExecuteHandle_IT) for SBT_ExecuteHandle_IT
    main.o(i.BT_func2) refers to sprites_behaviortree.o(i.SpritesBT_Init) for SpritesBT_Init
    main.o(i.BT_func2) refers to sprites_behaviortree.o(i.SpritesBT_Action) for SpritesBT_Action
    main.o(i.BT_func2) refers to sprites_behaviortree.o(i.SpritesBT_MountToRoot) for SpritesBT_MountToRoot
    main.o(i.BT_func2) refers to main.o(i.SBT_ExecuteHandle2) for SBT_ExecuteHandle2
    main.o(i.SBT_ExecuteHandle) refers to sprites_logical.o(i.SpritesMov_Left) for SpritesMov_Left
    main.o(i.SBT_ExecuteHandle) refers to sprites_animation.o(i.SpritesAnim_Update) for SpritesAnim_Update
    main.o(i.SBT_ExecuteHandle2) refers to sprites_logical.o(i.SpritesMov_Left) for SpritesMov_Left
    main.o(i.SBT_ExecuteHandle2) refers to sprites_logical.o(i.SpritesMov_Right) for SpritesMov_Right
    main.o(i.SBT_ExecuteHandle2) refers to sprites_logical.o(i.Sprites_Awaken) for Sprites_Awaken
    main.o(i.SBT_ExecuteHandle2) refers to sprites_animation.o(i.SpritesAnim_Update) for SpritesAnim_Update
    main.o(i.SBT_ExecuteHandle2) refers to main.o(.data) for Spritestemp
    main.o(i.SBT_ExecuteHandle_4) refers to sprites_logical.o(i.SpritesData_GetPos) for SpritesData_GetPos
    main.o(i.SBT_ExecuteHandle_4) refers to daddsub_clz.o(x$fpl$dsub) for __aeabi_dsub
    main.o(i.SBT_ExecuteHandle_4) refers to dmul.o(x$fpl$dmul) for __aeabi_dmul
    main.o(i.SBT_ExecuteHandle_4) refers to daddsub_clz.o(x$fpl$dadd) for __aeabi_dadd
    main.o(i.SBT_ExecuteHandle_4) refers to sqrt.o(i.sqrt) for sqrt
    main.o(i.SBT_ExecuteHandle_4) refers to dleqf.o(x$fpl$dleqf) for __aeabi_cdcmple
    main.o(i.SBT_ExecuteHandle_4) refers to sprites_logical.o(i.Sprites_Sleep) for Sprites_Sleep
    main.o(i.SBT_ExecuteHandle_4) refers to sprites_logical.o(i.SpritesMov_Forward) for SpritesMov_Forward
    main.o(i.SBT_ExecuteHandle_4) refers to sprites_logical.o(i.Sprites_collisionWallValue) for Sprites_collisionWallValue
    main.o(i.SBT_ExecuteHandle_4) refers to sprites_animation.o(i.SpritesAnim_Update) for SpritesAnim_Update
    main.o(i.SBT_ExecuteHandle_4) refers to main.o(.data) for iskunsleep
    main.o(i.SBT_ExecuteHandle_IT) refers to sprites_logical.o(i.SpritesData_GetPos) for SpritesData_GetPos
    main.o(i.SBT_ExecuteHandle_IT) refers to drleqf.o(x$fpl$drleqf) for __aeabi_cdrcmple
    main.o(i.SBT_ExecuteHandle_IT) refers to sprites_logical.o(i.SpritesMov_Right) for SpritesMov_Right
    main.o(i.SBT_ExecuteHandle_IT) refers to sprites_animation.o(i.SpritesAnim_Update) for SpritesAnim_Update
    main.o(i.SBT_ExecuteHandle_kun) refers to sprites_animation.o(i.SpritesAnim_Update) for SpritesAnim_Update
    main.o(i.SIT_MapIndexHandle) refers to sprites_logical.o(i.SpritesData_GetPos) for SpritesData_GetPos
    main.o(i.SIT_MapIndexHandle) refers to dleqf.o(x$fpl$dleqf) for __aeabi_cdcmple
    main.o(i.SpritesPrivateFreeHandle) refers to heap_solution_1.o(i.c_free) for c_free
    main.o(i.TIM2_IRQHandler) refers to stm32f10x_tim.o(i.TIM_GetITStatus) for TIM_GetITStatus
    main.o(i.TIM2_IRQHandler) refers to stm32f10x_tim.o(i.TIM_ClearITPendingBit) for TIM_ClearITPendingBit
    main.o(i.TIM2_IRQHandler) refers to main.o(.data) for frame_count
    main.o(i.frame_capture) refers to main.o(.data) for frame_count
    main.o(i.frm) refers to stm32f10x_rcc.o(i.RCC_APB1PeriphClockCmd) for RCC_APB1PeriphClockCmd
    main.o(i.frm) refers to stm32f10x_tim.o(i.TIM_TimeBaseInit) for TIM_TimeBaseInit
    main.o(i.frm) refers to stm32f10x_tim.o(i.TIM_Cmd) for TIM_Cmd
    main.o(i.func2) refers to stm32f10x_tim.o(i.TIM_GetCounter) for TIM_GetCounter
    main.o(i.func2) refers to dflt_clz.o(x$fpl$dfltu) for __aeabi_ui2d
    main.o(i.func2) refers to ddiv.o(x$fpl$ddiv) for __aeabi_ddiv
    main.o(i.func2) refers to stm32f10x_tim.o(i.TIM_SetCounter) for TIM_SetCounter
    main.o(i.func3) refers to mistink.o(i.MistinkPixel_RegisterOP) for MistinkPixel_RegisterOP
    main.o(i.func3) refers to main.o(.data) for displayer
    main.o(i.function) refers to main.o(i.BT_func) for BT_func
    main.o(i.function) refers to sprites_logical.o(i.Sprites_ObjectCreate) for Sprites_ObjectCreate
    main.o(i.function) refers to sprites_logical.o(i.SpritesMov_SetDir) for SpritesMov_SetDir
    main.o(i.function) refers to heap_solution_1.o(i.c_malloc) for c_malloc
    main.o(i.function) refers to sprites_logical.o(i.SpritesPriv_Add) for SpritesPriv_Add
    main.o(i.function) refers to main.o(i.SpritesPrivateFreeHandle) for SpritesPrivateFreeHandle
    main.o(i.function2) refers to main.o(i.BT_func2) for BT_func2
    main.o(i.function2) refers to sprites_logical.o(i.Sprites_ObjectCreate) for Sprites_ObjectCreate
    main.o(i.function2) refers to sprites_logical.o(i.SpritesMov_SetDir) for SpritesMov_SetDir
    main.o(i.function2) refers to heap_solution_1.o(i.c_malloc) for c_malloc
    main.o(i.function2) refers to sprites_logical.o(i.SpritesPriv_Add) for SpritesPriv_Add
    main.o(i.function2) refers to main.o(i.SpritesPrivateFreeHandle) for SpritesPrivateFreeHandle
    main.o(i.function3) refers to sprites_behaviortree.o(i.SpritesBT_Init) for SpritesBT_Init
    main.o(i.function3) refers to sprites_behaviortree.o(i.SpritesBT_Action) for SpritesBT_Action
    main.o(i.function3) refers to sprites_behaviortree.o(i.SpritesBT_MountToRoot) for SpritesBT_MountToRoot
    main.o(i.function3) refers to sprites_logical.o(i.Sprites_ObjectCreate) for Sprites_ObjectCreate
    main.o(i.function3) refers to sprites_logical.o(i.SpritesMov_SetDir) for SpritesMov_SetDir
    main.o(i.function3) refers to heap_solution_1.o(i.c_malloc) for c_malloc
    main.o(i.function3) refers to sprites_logical.o(i.SpritesPriv_Add) for SpritesPriv_Add
    main.o(i.function3) refers to main.o(i.SBT_ExecuteHandle_kun) for SBT_ExecuteHandle_kun
    main.o(i.function3) refers to main.o(i.SpritesPrivateFreeHandle) for SpritesPrivateFreeHandle
    main.o(i.function4) refers to sprites_behaviortree.o(i.SpritesBT_Init) for SpritesBT_Init
    main.o(i.function4) refers to sprites_behaviortree.o(i.SpritesBT_Action) for SpritesBT_Action
    main.o(i.function4) refers to sprites_behaviortree.o(i.SpritesBT_MountToRoot) for SpritesBT_MountToRoot
    main.o(i.function4) refers to sprites_logical.o(i.Sprites_ObjectCreate) for Sprites_ObjectCreate
    main.o(i.function4) refers to sprites_logical.o(i.SpritesMov_SetDir) for SpritesMov_SetDir
    main.o(i.function4) refers to heap_solution_1.o(i.c_malloc) for c_malloc
    main.o(i.function4) refers to sprites_logical.o(i.SpritesPriv_Add) for SpritesPriv_Add
    main.o(i.function4) refers to main.o(i.SBT_ExecuteHandle_4) for SBT_ExecuteHandle_4
    main.o(i.function4) refers to main.o(i.SpritesPrivateFreeHandle) for SpritesPrivateFreeHandle
    main.o(i.init_timer) refers to stm32f10x_rcc.o(i.RCC_APB1PeriphClockCmd) for RCC_APB1PeriphClockCmd
    main.o(i.init_timer) refers to stm32f10x_tim.o(i.TIM_TimeBaseInit) for TIM_TimeBaseInit
    main.o(i.init_timer) refers to stm32f10x_tim.o(i.TIM_ITConfig) for TIM_ITConfig
    main.o(i.init_timer) refers to stm32f10x_tim.o(i.TIM_Cmd) for TIM_Cmd
    main.o(i.init_timer) refers to misc.o(i.NVIC_Init) for NVIC_Init
    main.o(i.main) refers to mistink_displayer.o(i.MistinkDisplayer_Create) for MistinkDisplayer_Create
    main.o(i.main) refers to main.o(i.init_timer) for init_timer
    main.o(i.main) refers to mistink.o(i.M_String) for M_String
    main.o(i.main) refers to mistink_displayer.o(i.MistinkDisplayer_BufferOutput) for MistinkDisplayer_BufferOutput
    main.o(i.main) refers to mistink.o(i.MistinkOP_GetBufferAPI) for MistinkOP_GetBufferAPI
    main.o(i.main) refers to canvas.o(i.Canvas_SetCanvasModeToRedirect) for Canvas_SetCanvasModeToRedirect
    main.o(i.main) refers to ceruleanbird.o(i.CeruleanBird_Init) for CeruleanBird_Init
    main.o(i.main) refers to texturemapper.o(i.Texture_Add) for Texture_Add
    main.o(i.main) refers to worldmap.o(i.WorldMap_Add) for WorldMap_Add
    main.o(i.main) refers to sprites_animation.o(i.SpritesAnim_CreateManager) for SpritesAnim_CreateManager
    main.o(i.main) refers to sprites_animation.o(i.SpritesAnim_CreateNewChain) for SpritesAnim_CreateNewChain
    main.o(i.main) refers to sprites_animation.o(i.SpritesAnim_InsertNewFrm) for SpritesAnim_InsertNewFrm
    main.o(i.main) refers to main.o(i.function) for function
    main.o(i.main) refers to main.o(i.function2) for function2
    main.o(i.main) refers to main.o(i.function3) for function3
    main.o(i.main) refers to main.o(i.function4) for function4
    main.o(i.main) refers to sprites_logical.o(i.SpritesMov_SetDirWithCamera) for SpritesMov_SetDirWithCamera
    main.o(i.main) refers to sprites_behaviortree.o(i.SpritesIT_Enable) for SpritesIT_Enable
    main.o(i.main) refers to mistink.o(i.MistinkOP_BufferReset) for MistinkOP_BufferReset
    main.o(i.main) refers to frameratestrategy.o(i.FrmRS_deltaTime_Init) for FrmRS_deltaTime_Init
    main.o(i.main) refers to sprites_animation.o(i.SpritesAnim_SetAnimType) for SpritesAnim_SetAnimType
    main.o(i.main) refers to sprites_animation.o(i.SpritesAnim_SwitchChain) for SpritesAnim_SwitchChain
    main.o(i.main) refers to m_stm32f103c8t6.o(i.OLED_Init) for OLED_Init
    main.o(i.main) refers to m_stm32f103c8t6.o(i.OLED_BufferOutput) for OLED_BufferOutput
    main.o(i.main) refers to m_stm32f103c8t6.o(i.OLED_Clear) for OLED_Clear
    main.o(i.main) refers to main.o(.data) for displayer
    main.o(i.main) refers to animation.o(.constdata) for kun2
    main.o(i.main) refers to main.o(.constdata) for jian_8x8
    main.o(i.main) refers to main.o(i.func2) for func2
    main.o(i.main) refers to main.o(i.frm) for frm
    main.o(i.main) refers to sprites_logical.o(i.Sprites_Sleep) for Sprites_Sleep
    main.o(i.main) refers to camera.o(i.SSRAnim_ManagerCreate) for SSRAnim_ManagerCreate
    main.o(i.main) refers to camera.o(i.SSRAnim_FrmAdd) for SSRAnim_FrmAdd
    main.o(i.main) refers to camera.o(i.SSRAnim_RenderEnable) for SSRAnim_RenderEnable
    main.o(i.main) refers to camera.o(i.SSRAnim_SetPos) for SSRAnim_SetPos
    main.o(i.main) refers to camera.o(i.SSR_SetCameraExecAnim) for SSR_SetCameraExecAnim
    main.o(i.main) refers to deqf.o(x$fpl$deqf) for __aeabi_cdcmpeq
    main.o(i.main) refers to frameratestrategy.o(i.FrmRS_deltaTime_Trigger) for FrmRS_deltaTime_Trigger
    main.o(i.main) refers to camera.o(i.Camera_Render) for Camera_Render
    main.o(i.main) refers to main.o(i.frame_capture) for frame_capture
    main.o(i.main) refers to frameratestrategy.o(i.FrmRS_GetFrmRate) for FrmRS_GetFrmRate
    main.o(i.main) refers to dfix.o(x$fpl$dfix) for __aeabi_d2iz
    main.o(i.main) refers to mistink.o(i.M_Int) for M_Int
    main.o(i.main) refers to sprites_logical.o(i.Sprites_Exec) for Sprites_Exec
    main.o(i.main) refers to camera.o(i.SSRAnim_Exec) for SSRAnim_Exec
    main.o(i.main) refers to camera.o(i.SSRAnim_Update) for SSRAnim_Update
    main.o(i.main) refers to sprites_logical.o(i.SpritesMov_SetPosToCamera) for SpritesMov_SetPosToCamera
    main.o(i.main) refers to sprites_logical.o(i.Sprites_Awaken) for Sprites_Awaken
    main.o(i.main) refers to sprites_logical.o(i.SpritesMov_Forward) for SpritesMov_Forward
    main.o(i.main) refers to camera.o(i.SSRAnim_ResetSingle) for SSRAnim_ResetSingle
    main.o(i.map_print_dn) refers to mistink.o(i.MistinkPixel_Operate) for MistinkPixel_Operate
    main.o(i.map_print_dn) refers to main.o(.data) for TestMap2
    camera.o(i.Camera_BackMove) refers to worldmap.o(i.WorldMap_GetCurrentMapPos) for WorldMap_GetCurrentMapPos
    camera.o(i.Camera_BackMove) refers to worldmap.o(i.WorldMap_GetWorldMap) for WorldMap_GetWorldMap
    camera.o(i.Camera_BackMove) refers to dmul.o(x$fpl$dmul) for __aeabi_dmul
    camera.o(i.Camera_BackMove) refers to dfix.o(x$fpl$dfix) for __aeabi_d2iz
    camera.o(i.Camera_BackMove) refers to daddsub_clz.o(x$fpl$drsb) for __aeabi_drsub
    camera.o(i.Camera_BackMove) refers to worldmap.o(i.WorldMap_Extract) for WorldMap_Extract
    camera.o(i.Camera_BackMove) refers to frameratestrategy.o(.data) for DeltaTime
    camera.o(i.Camera_DeepBuffer_Read) refers to enginefault.o(i.EngineFault_IllegalAccess_Handle) for EngineFault_IllegalAccess_Handle
    camera.o(i.Camera_DeepBuffer_Write) refers to enginefault.o(i.EngineFault_IllegalAccess_Handle) for EngineFault_IllegalAccess_Handle
    camera.o(i.Camera_ForwardMove) refers to worldmap.o(i.WorldMap_GetCurrentMapPos) for WorldMap_GetCurrentMapPos
    camera.o(i.Camera_ForwardMove) refers to worldmap.o(i.WorldMap_GetWorldMap) for WorldMap_GetWorldMap
    camera.o(i.Camera_ForwardMove) refers to dmul.o(x$fpl$dmul) for __aeabi_dmul
    camera.o(i.Camera_ForwardMove) refers to dfix.o(x$fpl$dfix) for __aeabi_d2iz
    camera.o(i.Camera_ForwardMove) refers to daddsub_clz.o(x$fpl$dadd) for __aeabi_dadd
    camera.o(i.Camera_ForwardMove) refers to worldmap.o(i.WorldMap_Extract) for WorldMap_Extract
    camera.o(i.Camera_ForwardMove) refers to frameratestrategy.o(.data) for DeltaTime
    camera.o(i.Camera_Init) refers to dleqf.o(x$fpl$dleqf) for __aeabi_cdcmple
    camera.o(i.Camera_Init) refers to drleqf.o(x$fpl$drleqf) for __aeabi_cdrcmple
    camera.o(i.Camera_Init) refers to heap_solution_1.o(i.c_malloc) for c_malloc
    camera.o(i.Camera_Init) refers to dmul.o(x$fpl$dmul) for __aeabi_dmul
    camera.o(i.Camera_Init) refers to vector.o(i.vector_Normalize) for vector_Normalize
    camera.o(i.Camera_Init) refers to ddiv.o(x$fpl$ddiv) for __aeabi_ddiv
    camera.o(i.Camera_Init) refers to tan.o(i.tan) for tan
    camera.o(i.Camera_Init) refers to vector.o(i.vector_Create) for vector_Create
    camera.o(i.Camera_Init) refers to camera.o(i.Celi_DefaultRender) for Celi_DefaultRender
    camera.o(i.Camera_Init) refers to camera.o(i.Floor_DefaultRender) for Floor_DefaultRender
    camera.o(i.Camera_LeftMove) refers to worldmap.o(i.WorldMap_GetCurrentMapPos) for WorldMap_GetCurrentMapPos
    camera.o(i.Camera_LeftMove) refers to worldmap.o(i.WorldMap_GetWorldMap) for WorldMap_GetWorldMap
    camera.o(i.Camera_LeftMove) refers to dmul.o(x$fpl$dmul) for __aeabi_dmul
    camera.o(i.Camera_LeftMove) refers to dfix.o(x$fpl$dfix) for __aeabi_d2iz
    camera.o(i.Camera_LeftMove) refers to daddsub_clz.o(x$fpl$drsb) for __aeabi_drsub
    camera.o(i.Camera_LeftMove) refers to worldmap.o(i.WorldMap_Extract) for WorldMap_Extract
    camera.o(i.Camera_LeftMove) refers to frameratestrategy.o(.data) for DeltaTime
    camera.o(i.Camera_LeftPan) refers to dmul.o(x$fpl$dmul) for __aeabi_dmul
    camera.o(i.Camera_LeftPan) refers to sin.o(i.sin) for sin
    camera.o(i.Camera_LeftPan) refers to cos.o(i.cos) for cos
    camera.o(i.Camera_LeftPan) refers to daddsub_clz.o(x$fpl$dsub) for __aeabi_dsub
    camera.o(i.Camera_LeftPan) refers to daddsub_clz.o(x$fpl$dadd) for __aeabi_dadd
    camera.o(i.Camera_LeftPan) refers to frameratestrategy.o(.data) for DeltaTime
    camera.o(i.Camera_Render) refers to worldmap.o(i.WorldMap_GetCurrentMapPos) for WorldMap_GetCurrentMapPos
    camera.o(i.Camera_Render) refers to worldmap.o(i.WorldMap_GetWorldMap) for WorldMap_GetWorldMap
    camera.o(i.Camera_Render) refers to dflt_clz.o(x$fpl$dflt) for __aeabi_i2d
    camera.o(i.Camera_Render) refers to ddiv.o(x$fpl$ddiv) for __aeabi_ddiv
    camera.o(i.Camera_Render) refers to daddsub_clz.o(x$fpl$dsub) for __aeabi_dsub
    camera.o(i.Camera_Render) refers to dmul.o(x$fpl$dmul) for __aeabi_dmul
    camera.o(i.Camera_Render) refers to daddsub_clz.o(x$fpl$dadd) for __aeabi_dadd
    camera.o(i.Camera_Render) refers to dleqf.o(x$fpl$dleqf) for __aeabi_cdcmple
    camera.o(i.Camera_Render) refers to dfix.o(x$fpl$dfix) for __aeabi_d2iz
    camera.o(i.Camera_Render) refers to drleqf.o(x$fpl$drleqf) for __aeabi_cdrcmple
    camera.o(i.Camera_Render) refers to daddsub_clz.o(x$fpl$drsb) for __aeabi_drsub
    camera.o(i.Camera_Render) refers to worldmap.o(i.WorldMap_Extract) for WorldMap_Extract
    camera.o(i.Camera_Render) refers to camera.o(i.Camera_DeepBuffer_Write) for Camera_DeepBuffer_Write
    camera.o(i.Camera_Render) refers to texturemapper.o(i.Texture_GetTexture) for Texture_GetTexture
    camera.o(i.Camera_Render) refers to texturemapper.o(i.Texture_Extract) for Texture_Extract
    camera.o(i.Camera_Render) refers to canvas.o(i.Canvas_PixelOperate) for Canvas_PixelOperate
    camera.o(i.Camera_RightMove) refers to worldmap.o(i.WorldMap_GetCurrentMapPos) for WorldMap_GetCurrentMapPos
    camera.o(i.Camera_RightMove) refers to worldmap.o(i.WorldMap_GetWorldMap) for WorldMap_GetWorldMap
    camera.o(i.Camera_RightMove) refers to dmul.o(x$fpl$dmul) for __aeabi_dmul
    camera.o(i.Camera_RightMove) refers to dfix.o(x$fpl$dfix) for __aeabi_d2iz
    camera.o(i.Camera_RightMove) refers to daddsub_clz.o(x$fpl$dadd) for __aeabi_dadd
    camera.o(i.Camera_RightMove) refers to worldmap.o(i.WorldMap_Extract) for WorldMap_Extract
    camera.o(i.Camera_RightMove) refers to frameratestrategy.o(.data) for DeltaTime
    camera.o(i.Camera_RightPan) refers to dmul.o(x$fpl$dmul) for __aeabi_dmul
    camera.o(i.Camera_RightPan) refers to sin.o(i.sin) for sin
    camera.o(i.Camera_RightPan) refers to cos.o(i.cos) for cos
    camera.o(i.Camera_RightPan) refers to daddsub_clz.o(x$fpl$dsub) for __aeabi_dsub
    camera.o(i.Camera_RightPan) refers to daddsub_clz.o(x$fpl$dadd) for __aeabi_dadd
    camera.o(i.Camera_RightPan) refers to frameratestrategy.o(.data) for DeltaTime
    camera.o(i.Ceil_TextureRender) refers to daddsub_clz.o(x$fpl$dsub) for __aeabi_dsub
    camera.o(i.Ceil_TextureRender) refers to daddsub_clz.o(x$fpl$dadd) for __aeabi_dadd
    camera.o(i.Ceil_TextureRender) refers to dflt_clz.o(x$fpl$dflt) for __aeabi_i2d
    camera.o(i.Ceil_TextureRender) refers to ddiv.o(x$fpl$ddiv) for __aeabi_ddiv
    camera.o(i.Ceil_TextureRender) refers to dmul.o(x$fpl$dmul) for __aeabi_dmul
    camera.o(i.Ceil_TextureRender) refers to dfix.o(x$fpl$dfix) for __aeabi_d2iz
    camera.o(i.Ceil_TextureRender) refers to daddsub_clz.o(x$fpl$drsb) for __aeabi_drsub
    camera.o(i.Ceil_TextureRender) refers to camera.o(i.Celi_GetTexture) for Celi_GetTexture
    camera.o(i.Ceil_TextureRender) refers to canvas.o(i.Canvas_PixelOperate) for Canvas_PixelOperate
    camera.o(i.Celi_CustomRenderCreate) refers to worldmap.o(i.WorldMap_GetCurrentMapPos) for WorldMap_GetCurrentMapPos
    camera.o(i.Celi_CustomRenderCreate) refers to worldmap.o(i.WorldMap_GetWorldMap) for WorldMap_GetWorldMap
    camera.o(i.Celi_GetTexture) refers to rb_tree.o(i.search) for search
    camera.o(i.Celi_GetTexture) refers to camera.o(.data) for CeliTreeManager
    camera.o(i.Celi_SwitchCustomReaderMode) refers to camera.o(i.Ceil_TextureRender) for Ceil_TextureRender
    camera.o(i.Celi_TextureAdd) refers to rb_tree.o(i.search) for search
    camera.o(i.Celi_TextureAdd) refers to heap_solution_1.o(i.c_malloc) for c_malloc
    camera.o(i.Celi_TextureAdd) refers to rb_tree.o(i.rbInsert) for rbInsert
    camera.o(i.Celi_TextureAdd) refers to heap_solution_1.o(i.c_free) for c_free
    camera.o(i.Celi_TextureAdd) refers to camera.o(.data) for CeliTreeManager
    camera.o(i.Floor_CustomRenderCreate) refers to worldmap.o(i.WorldMap_GetCurrentMapPos) for WorldMap_GetCurrentMapPos
    camera.o(i.Floor_CustomRenderCreate) refers to worldmap.o(i.WorldMap_GetWorldMap) for WorldMap_GetWorldMap
    camera.o(i.Floor_DefaultRender) refers to canvas.o(i.Canvas_PixelOperate) for Canvas_PixelOperate
    camera.o(i.Floor_GetTexture) refers to rb_tree.o(i.search) for search
    camera.o(i.Floor_GetTexture) refers to camera.o(.data) for FloorTreeManager
    camera.o(i.Floor_SwitchCustomReaderMode) refers to camera.o(i.Floor_TextureRender) for Floor_TextureRender
    camera.o(i.Floor_TextureAdd) refers to rb_tree.o(i.search) for search
    camera.o(i.Floor_TextureAdd) refers to heap_solution_1.o(i.c_malloc) for c_malloc
    camera.o(i.Floor_TextureAdd) refers to rb_tree.o(i.rbInsert) for rbInsert
    camera.o(i.Floor_TextureAdd) refers to heap_solution_1.o(i.c_free) for c_free
    camera.o(i.Floor_TextureAdd) refers to camera.o(.data) for FloorTreeManager
    camera.o(i.Floor_TextureRender) refers to daddsub_clz.o(x$fpl$dsub) for __aeabi_dsub
    camera.o(i.Floor_TextureRender) refers to daddsub_clz.o(x$fpl$dadd) for __aeabi_dadd
    camera.o(i.Floor_TextureRender) refers to dflt_clz.o(x$fpl$dflt) for __aeabi_i2d
    camera.o(i.Floor_TextureRender) refers to ddiv.o(x$fpl$ddiv) for __aeabi_ddiv
    camera.o(i.Floor_TextureRender) refers to dmul.o(x$fpl$dmul) for __aeabi_dmul
    camera.o(i.Floor_TextureRender) refers to dfix.o(x$fpl$dfix) for __aeabi_d2iz
    camera.o(i.Floor_TextureRender) refers to daddsub_clz.o(x$fpl$drsb) for __aeabi_drsub
    camera.o(i.Floor_TextureRender) refers to camera.o(i.Floor_GetTexture) for Floor_GetTexture
    camera.o(i.Floor_TextureRender) refers to canvas.o(i.Canvas_PixelOperate) for Canvas_PixelOperate
    camera.o(i.SSRAnim_FrmAdd) refers to rb_tree.o(i.search) for search
    camera.o(i.SSRAnim_FrmAdd) refers to heap_solution_1.o(i.c_malloc) for c_malloc
    camera.o(i.SSRAnim_FrmAdd) refers to dflt_clz.o(x$fpl$dflt) for __aeabi_i2d
    camera.o(i.SSRAnim_FrmAdd) refers to ddiv.o(x$fpl$ddiv) for __aeabi_ddiv
    camera.o(i.SSRAnim_FrmAdd) refers to heap_solution_1.o(i.c_free) for c_free
    camera.o(i.SSRAnim_FrmAdd) refers to camera.o(.data) for SSR_CoreTree
    camera.o(i.SSRAnim_ManagerCreate) refers to rb_tree.o(i.search) for search
    camera.o(i.SSRAnim_ManagerCreate) refers to heap_solution_1.o(i.c_malloc) for c_malloc
    camera.o(i.SSRAnim_ManagerCreate) refers to rb_tree.o(i.rbInsert) for rbInsert
    camera.o(i.SSRAnim_ManagerCreate) refers to heap_solution_1.o(i.c_free) for c_free
    camera.o(i.SSRAnim_ManagerCreate) refers to camera.o(.data) for SSR_CoreTree
    camera.o(i.SSRAnim_Render) refers to camera.o(i.SSRAnim_FrmExtract) for SSRAnim_FrmExtract
    camera.o(i.SSRAnim_Render) refers to canvas.o(i.Canvas_PixelOperate) for Canvas_PixelOperate
    camera.o(i.SSRAnim_RenderEnable) refers to camera.o(i.SSRAnim_Render) for SSRAnim_Render
    camera.o(i.SSRAnim_Update) refers to enginefault.o(i.EngineFault_NullPointerGuard_Handle) for EngineFault_NullPointerGuard_Handle
    camera.o(i.SSRAnim_Update) refers to daddsub_clz.o(x$fpl$dadd) for __aeabi_dadd
    camera.o(i.SSRAnim_Update) refers to daddsub_clz.o(x$fpl$dsub) for __aeabi_dsub
    camera.o(i.SSRAnim_Update) refers to drleqf.o(x$fpl$drleqf) for __aeabi_cdrcmple
    camera.o(i.SSRAnim_Update) refers to frameratestrategy.o(.data) for DeltaTime
    camera.o(i.SSR_SetCameraExecAnim) refers to rb_tree.o(i.search) for search
    camera.o(i.SSR_SetCameraExecAnim) refers to camera.o(.data) for SSR_CoreTree
    canvas.o(i.Canvas_Base) refers to canvas.o(.data) for Screen_Canvas
    canvas.o(i.Canvas_Free) refers to heap_solution_1.o(i.c_free) for c_free
    canvas.o(i.Canvas_Free) refers to canvas.o(.data) for Canvas_Mode
    canvas.o(i.Canvas_GetUnit) refers to canvas.o(.data) for Screen_Canvas
    canvas.o(i.Canvas_Init) refers to heap_solution_1.o(i.memory_pool_init) for memory_pool_init
    canvas.o(i.Canvas_Init) refers to heap_solution_1.o(i.c_malloc) for c_malloc
    canvas.o(i.Canvas_Init) refers to canvas.o(.data) for Canvas_Mode
    canvas.o(i.Canvas_PixelOperate) refers to canvas.o(i.Canvas_GetUnit) for Canvas_GetUnit
    canvas.o(i.Canvas_PixelOperate) refers to bit_operate.o(i.Bit_Modify_Within_Byte) for Bit_Modify_Within_Byte
    canvas.o(i.Canvas_Refresh) refers to canvas.o(.data) for Screen_Canvas
    canvas.o(i.Canvas_SetCanvasModeToRedirect) refers to canvas.o(.data) for Screen_Canvas
    ceruleanbird.o(i.CeruleanBird_Init) refers to canvas.o(i.Canvas_Init) for Canvas_Init
    ceruleanbird.o(i.CeruleanBird_Init) refers to camera.o(i.Camera_Init) for Camera_Init
    heap_solution_1.o(i.c_free) refers to heap_solution_1.o(i.verifyBlock) for verifyBlock
    heap_solution_1.o(i.c_free) refers to enginefault.o(i.EngineFault_IllegalFree_Handle) for EngineFault_IllegalFree_Handle
    heap_solution_1.o(i.c_free) refers to heap_solution_1.o(.data) for BlockListHeader
    heap_solution_1.o(i.c_malloc) refers to heap_solution_1.o(i.memory_pool_init) for memory_pool_init
    heap_solution_1.o(i.c_malloc) refers to heap_solution_1.o(i.calculate_crc8) for calculate_crc8
    heap_solution_1.o(i.c_malloc) refers to heap_solution_1.o(.data) for BlockListHeader
    heap_solution_1.o(i.c_realloc) refers to heap_solution_1.o(i.verifyBlock) for verifyBlock
    heap_solution_1.o(i.c_realloc) refers to enginefault.o(i.EngineFault_IllegalAccess_Handle) for EngineFault_IllegalAccess_Handle
    heap_solution_1.o(i.c_realloc) refers to heap_solution_1.o(i.calculate_crc8) for calculate_crc8
    heap_solution_1.o(i.c_realloc) refers to heap_solution_1.o(i.c_malloc) for c_malloc
    heap_solution_1.o(i.c_realloc) refers to heap_solution_1.o(i.c_free) for c_free
    heap_solution_1.o(i.memory_pool_init) refers to heap_solution_1.o(i.calculate_crc8) for calculate_crc8
    heap_solution_1.o(i.memory_pool_init) refers to heap_solution_1.o(.data) for Init_flag
    heap_solution_1.o(i.verifyBlock) refers to heap_solution_1.o(i.calculate_crc8) for calculate_crc8
    heap_solution_1.o(.data) refers to heap_solution_1.o(.bss) for MEMORY_POOL
    rb_tree.o(i.AdjustInsert) refers to rb_tree.o(i.leftRotate) for leftRotate
    rb_tree.o(i.AdjustInsert) refers to rb_tree.o(i.rightRotate) for rightRotate
    rb_tree.o(i.DeleteBlackLeafNodeWithRedSibling) refers to rb_tree.o(i.rotateRight) for rotateRight
    rb_tree.o(i.DeleteBlackLeafNodeWithRedSibling) refers to rb_tree.o(i.rotateLeft) for rotateLeft
    rb_tree.o(i.DeleteNodeWithOneChild) refers to heap_solution_1.o(i.c_free) for c_free
    rb_tree.o(i.DeleteRedLeafNode) refers to heap_solution_1.o(i.c_free) for c_free
    rb_tree.o(i.DeleteWhenHasRedNephews) refers to rb_tree.o(i.NodeColor) for NodeColor
    rb_tree.o(i.DeleteWhenHasRedNephews) refers to rb_tree.o(i.rotateRight) for rotateRight
    rb_tree.o(i.DeleteWhenHasRedNephews) refers to rb_tree.o(i.rotateLeft) for rotateLeft
    rb_tree.o(i.FindTargetNode) refers to rb_tree.o(i.HandleNodeWithTwoChildren) for HandleNodeWithTwoChildren
    rb_tree.o(i.RB_Tree_Free) refers to rb_tree.o(i.rbDelete) for rbDelete
    rb_tree.o(i.TreeDelete) refers to rb_tree.o(i.FindTargetNode) for FindTargetNode
    rb_tree.o(i.TreeDelete) refers to heap_solution_1.o(i.c_free) for c_free
    rb_tree.o(i.TreeDelete) refers to rb_tree.o(i.DeleteRedLeafNode) for DeleteRedLeafNode
    rb_tree.o(i.TreeDelete) refers to rb_tree.o(i.getRoot) for getRoot
    rb_tree.o(i.TreeDelete) refers to rb_tree.o(i.brotherNode) for brotherNode
    rb_tree.o(i.TreeDelete) refers to rb_tree.o(i.NodeColor) for NodeColor
    rb_tree.o(i.TreeDelete) refers to rb_tree.o(i.DeleteWhenHasRedNephews) for DeleteWhenHasRedNephews
    rb_tree.o(i.TreeDelete) refers to rb_tree.o(i.DeleteBlackLeafNodeWithRedSibling) for DeleteBlackLeafNodeWithRedSibling
    rb_tree.o(i.TreeDelete) refers to rb_tree.o(i.DeleteNodeWithOneChild) for DeleteNodeWithOneChild
    rb_tree.o(i.createNode) refers to heap_solution_1.o(i.c_malloc) for c_malloc
    rb_tree.o(i.rbDelete) refers to rb_tree.o(i.TreeDelete) for TreeDelete
    rb_tree.o(i.rbInsert) refers to heap_solution_1.o(i.memory_pool_init) for memory_pool_init
    rb_tree.o(i.rbInsert) refers to rb_tree.o(i.createNode) for createNode
    rb_tree.o(i.rbInsert) refers to rb_tree.o(i.AdjustInsert) for AdjustInsert
    texturemapper.o(i.Texture_Add) refers to heap_solution_1.o(i.memory_pool_init) for memory_pool_init
    texturemapper.o(i.Texture_Add) refers to enginefault.o(i.EngineFault_NullPointerGuard_Handle) for EngineFault_NullPointerGuard_Handle
    texturemapper.o(i.Texture_Add) refers to heap_solution_1.o(i.c_malloc) for c_malloc
    texturemapper.o(i.Texture_Add) refers to bit_operate.o(i.bitToByte) for bitToByte
    texturemapper.o(i.Texture_Add) refers to rb_tree.o(i.rbInsert) for rbInsert
    texturemapper.o(i.Texture_Add) refers to heap_solution_1.o(i.c_free) for c_free
    texturemapper.o(i.Texture_Add) refers to texturemapper.o(.data) for TextureMapper_Header
    texturemapper.o(i.Texture_ArrayModify) refers to rb_tree.o(i.search) for search
    texturemapper.o(i.Texture_ArrayModify) refers to enginefault.o(i.EngineFault_NullPointerGuard_Handle) for EngineFault_NullPointerGuard_Handle
    texturemapper.o(i.Texture_ArrayModify) refers to texturemapper.o(.data) for TextureMapper_Header
    texturemapper.o(i.Texture_COLModify) refers to rb_tree.o(i.search) for search
    texturemapper.o(i.Texture_COLModify) refers to texturemapper.o(.data) for TextureMapper_Header
    texturemapper.o(i.Texture_Delete) refers to rb_tree.o(i.rbDelete) for rbDelete
    texturemapper.o(i.Texture_Delete) refers to texturemapper.o(.data) for TextureMapper_Header
    texturemapper.o(i.Texture_Extract) refers to enginefault.o(i.EngineFault_NullPointerGuard_Handle) for EngineFault_NullPointerGuard_Handle
    texturemapper.o(i.Texture_Free) refers to rb_tree.o(i.RB_Tree_Free) for RB_Tree_Free
    texturemapper.o(i.Texture_Free) refers to texturemapper.o(.data) for TextureMapper_Header
    texturemapper.o(i.Texture_GetArray) refers to rb_tree.o(i.search) for search
    texturemapper.o(i.Texture_GetArray) refers to texturemapper.o(.data) for TextureMapper_Header
    texturemapper.o(i.Texture_GetColumn) refers to rb_tree.o(i.search) for search
    texturemapper.o(i.Texture_GetColumn) refers to texturemapper.o(.data) for TextureMapper_Header
    texturemapper.o(i.Texture_GetROW) refers to rb_tree.o(i.search) for search
    texturemapper.o(i.Texture_GetROW) refers to texturemapper.o(.data) for TextureMapper_Header
    texturemapper.o(i.Texture_GetTexture) refers to rb_tree.o(i.search) for search
    texturemapper.o(i.Texture_GetTexture) refers to texturemapper.o(.data) for TextureMapper_Header
    texturemapper.o(i.Texture_GetTextureType) refers to rb_tree.o(i.search) for search
    texturemapper.o(i.Texture_GetTextureType) refers to texturemapper.o(.data) for TextureMapper_Header
    texturemapper.o(i.Texture_ROWModify) refers to rb_tree.o(i.search) for search
    texturemapper.o(i.Texture_ROWModify) refers to bit_operate.o(i.bitToByte) for bitToByte
    texturemapper.o(i.Texture_ROWModify) refers to texturemapper.o(.data) for TextureMapper_Header
    texturemapper.o(i.Texture_TypeModify) refers to rb_tree.o(i.search) for search
    texturemapper.o(i.Texture_TypeModify) refers to texturemapper.o(.data) for TextureMapper_Header
    texturemapper.o(i.Texture_ValueModify) refers to rb_tree.o(i.search) for search
    texturemapper.o(i.Texture_ValueModify) refers to texturemapper.o(i.Texture_Add) for Texture_Add
    texturemapper.o(i.Texture_ValueModify) refers to texturemapper.o(i.Texture_Delete) for Texture_Delete
    texturemapper.o(i.Texture_ValueModify) refers to texturemapper.o(.data) for TextureMapper_Header
    vector.o(i.vector_Add) refers to daddsub_clz.o(x$fpl$dadd) for __aeabi_dadd
    vector.o(i.vector_Add) refers to vector.o(i.vector_Create) for vector_Create
    vector.o(i.vector_Dot) refers to dmul.o(x$fpl$dmul) for __aeabi_dmul
    vector.o(i.vector_Dot) refers to daddsub_clz.o(x$fpl$dadd) for __aeabi_dadd
    vector.o(i.vector_Magnitude) refers to vector.o(i.vector_MagnitudeSquare) for vector_MagnitudeSquare
    vector.o(i.vector_Magnitude) refers to sqrt.o(i.sqrt) for sqrt
    vector.o(i.vector_MagnitudeSquare) refers to dmul.o(x$fpl$dmul) for __aeabi_dmul
    vector.o(i.vector_MagnitudeSquare) refers to daddsub_clz.o(x$fpl$dadd) for __aeabi_dadd
    vector.o(i.vector_Negate) refers to vector.o(i.vector_Create) for vector_Create
    vector.o(i.vector_Normalize) refers to vector.o(i.vector_Magnitude) for vector_Magnitude
    vector.o(i.vector_Normalize) refers to dleqf.o(x$fpl$dleqf) for __aeabi_cdcmple
    vector.o(i.vector_Normalize) refers to vector.o(i.vector_Create) for vector_Create
    vector.o(i.vector_Normalize) refers to drleqf.o(x$fpl$drleqf) for __aeabi_cdrcmple
    vector.o(i.vector_Normalize) refers to dflt_clz.o(x$fpl$dflt) for __aeabi_i2d
    vector.o(i.vector_Normalize) refers to vector.o(i.vector_Scalar_Div) for vector_Scalar_Div
    vector.o(i.vector_Scalar_Div) refers to dleqf.o(x$fpl$dleqf) for __aeabi_cdcmple
    vector.o(i.vector_Scalar_Div) refers to vector.o(i.vector_Create) for vector_Create
    vector.o(i.vector_Scalar_Div) refers to ddiv.o(x$fpl$ddiv) for __aeabi_ddiv
    vector.o(i.vector_Scalar_Mul) refers to dmul.o(x$fpl$dmul) for __aeabi_dmul
    vector.o(i.vector_Scalar_Mul) refers to vector.o(i.vector_Create) for vector_Create
    vector.o(i.vector_Sub) refers to daddsub_clz.o(x$fpl$dsub) for __aeabi_dsub
    vector.o(i.vector_Sub) refers to vector.o(i.vector_Create) for vector_Create
    worldmap.o(i.WorldMap_Add) refers to heap_solution_1.o(i.memory_pool_init) for memory_pool_init
    worldmap.o(i.WorldMap_Add) refers to enginefault.o(i.EngineFault_NullPointerGuard_Handle) for EngineFault_NullPointerGuard_Handle
    worldmap.o(i.WorldMap_Add) refers to heap_solution_1.o(i.c_malloc) for c_malloc
    worldmap.o(i.WorldMap_Add) refers to rb_tree.o(i.rbInsert) for rbInsert
    worldmap.o(i.WorldMap_Add) refers to heap_solution_1.o(i.c_free) for c_free
    worldmap.o(i.WorldMap_Add) refers to worldmap.o(.data) for WorldMap_Header
    worldmap.o(i.WorldMap_ArrayModify) refers to rb_tree.o(i.search) for search
    worldmap.o(i.WorldMap_ArrayModify) refers to worldmap.o(.data) for WorldMap_Header
    worldmap.o(i.WorldMap_COLModify) refers to rb_tree.o(i.search) for search
    worldmap.o(i.WorldMap_COLModify) refers to worldmap.o(.data) for WorldMap_Header
    worldmap.o(i.WorldMap_Delete) refers to rb_tree.o(i.rbDelete) for rbDelete
    worldmap.o(i.WorldMap_Delete) refers to worldmap.o(.data) for WorldMap_Header
    worldmap.o(i.WorldMap_Extract) refers to enginefault.o(i.EngineFault_NullPointerGuard_Handle) for EngineFault_NullPointerGuard_Handle
    worldmap.o(i.WorldMap_Extract) refers to enginefault.o(i.EngineFault_IllegalAccess_Handle) for EngineFault_IllegalAccess_Handle
    worldmap.o(i.WorldMap_Free) refers to rb_tree.o(i.RB_Tree_Free) for RB_Tree_Free
    worldmap.o(i.WorldMap_Free) refers to worldmap.o(.data) for WorldMap_Header
    worldmap.o(i.WorldMap_GetArray) refers to rb_tree.o(i.search) for search
    worldmap.o(i.WorldMap_GetArray) refers to worldmap.o(.data) for WorldMap_Header
    worldmap.o(i.WorldMap_GetColumn) refers to rb_tree.o(i.search) for search
    worldmap.o(i.WorldMap_GetColumn) refers to worldmap.o(.data) for WorldMap_Header
    worldmap.o(i.WorldMap_GetCurrentMapPos) refers to worldmap.o(.data) for WorldMap_Pos
    worldmap.o(i.WorldMap_GetROW) refers to rb_tree.o(i.search) for search
    worldmap.o(i.WorldMap_GetROW) refers to worldmap.o(.data) for WorldMap_Header
    worldmap.o(i.WorldMap_GetWorldMap) refers to rb_tree.o(i.search) for search
    worldmap.o(i.WorldMap_GetWorldMap) refers to worldmap.o(.data) for WorldMap_Header
    worldmap.o(i.WorldMap_ROWModify) refers to rb_tree.o(i.search) for search
    worldmap.o(i.WorldMap_ROWModify) refers to worldmap.o(.data) for WorldMap_Header
    worldmap.o(i.WorldMap_SetCurrentMapPos) refers to worldmap.o(.data) for WorldMap_Pos
    worldmap.o(i.WorldMap_ValueModify) refers to rb_tree.o(i.search) for search
    worldmap.o(i.WorldMap_ValueModify) refers to worldmap.o(i.WorldMap_Add) for WorldMap_Add
    worldmap.o(i.WorldMap_ValueModify) refers to worldmap.o(i.WorldMap_Delete) for WorldMap_Delete
    worldmap.o(i.WorldMap_ValueModify) refers to worldmap.o(.data) for WorldMap_Header
    stack.o(i.Stack_Pop) refers to enginefault.o(i.EngineFault_NullPointerGuard_Handle) for EngineFault_NullPointerGuard_Handle
    stack.o(i.Stack_Pop) refers to heap_solution_1.o(i.c_free) for c_free
    stack.o(i.Stack_Push) refers to enginefault.o(i.EngineFault_NullPointerGuard_Handle) for EngineFault_NullPointerGuard_Handle
    stack.o(i.Stack_Push) refers to heap_solution_1.o(i.c_malloc) for c_malloc
    stack.o(i.Stack_Push) refers to enginefault.o(i.EngineFault_InadequateResources_Handle) for EngineFault_InadequateResources_Handle
    frameratestrategy.o(i.FrmRS_GetFrmRate) refers to enginefault.o(i.EngineFault_NullPointerGuard_Handle) for EngineFault_NullPointerGuard_Handle
    frameratestrategy.o(i.FrmRS_GetFrmRate) refers to dleqf.o(x$fpl$dleqf) for __aeabi_cdcmple
    frameratestrategy.o(i.FrmRS_GetFrmRate) refers to ddiv.o(x$fpl$ddiv) for __aeabi_ddiv
    frameratestrategy.o(i.FrmRS_GetFrmRate) refers to frameratestrategy.o(.data) for DeltaTime
    frameratestrategy.o(i.FrmRS_deltaTime_Free) refers to heap_solution_1.o(i.c_free) for c_free
    frameratestrategy.o(i.FrmRS_deltaTime_Free) refers to frameratestrategy.o(.data) for DeltaTime
    frameratestrategy.o(i.FrmRS_deltaTime_Get) refers to enginefault.o(i.EngineFault_NullPointerGuard_Handle) for EngineFault_NullPointerGuard_Handle
    frameratestrategy.o(i.FrmRS_deltaTime_Get) refers to frameratestrategy.o(.data) for DeltaTime
    frameratestrategy.o(i.FrmRS_deltaTime_Init) refers to heap_solution_1.o(i.c_malloc) for c_malloc
    frameratestrategy.o(i.FrmRS_deltaTime_Init) refers to frameratestrategy.o(.data) for DeltaTime
    frameratestrategy.o(i.FrmRS_deltaTime_Trigger) refers to enginefault.o(i.EngineFault_NullPointerGuard_Handle) for EngineFault_NullPointerGuard_Handle
    frameratestrategy.o(i.FrmRS_deltaTime_Trigger) refers to daddsub_clz.o(x$fpl$dadd) for __aeabi_dadd
    frameratestrategy.o(i.FrmRS_deltaTime_Trigger) refers to ddiv.o(x$fpl$ddiv) for __aeabi_ddiv
    frameratestrategy.o(i.FrmRS_deltaTime_Trigger) refers to frameratestrategy.o(.data) for DeltaTime
    sprites_animation.o(i.SpritesAnim_CreateManager) refers to sprites_logical.o(i.SpritesTree_Init) for SpritesTree_Init
    sprites_animation.o(i.SpritesAnim_CreateManager) refers to heap_solution_1.o(i.c_malloc) for c_malloc
    sprites_animation.o(i.SpritesAnim_CreateManager) refers to rb_tree.o(i.rbInsert) for rbInsert
    sprites_animation.o(i.SpritesAnim_CreateManager) refers to heap_solution_1.o(i.c_free) for c_free
    sprites_animation.o(i.SpritesAnim_CreateManager) refers to sprites_animation.o(.data) for Sprites_Header
    sprites_animation.o(i.SpritesAnim_CreateNewChain) refers to rb_tree.o(i.search) for search
    sprites_animation.o(i.SpritesAnim_CreateNewChain) refers to heap_solution_1.o(i.c_malloc) for c_malloc
    sprites_animation.o(i.SpritesAnim_CreateNewChain) refers to bit_operate.o(i.bitToByte) for bitToByte
    sprites_animation.o(i.SpritesAnim_CreateNewChain) refers to heap_solution_1.o(i.c_realloc) for c_realloc
    sprites_animation.o(i.SpritesAnim_CreateNewChain) refers to sprites_animation.o(.data) for Sprites_Header
    sprites_animation.o(i.SpritesAnim_GetAnimType) refers to enginefault.o(i.EngineFault_ExceptionEnumParam_Handle) for EngineFault_ExceptionEnumParam_Handle
    sprites_animation.o(i.SpritesAnim_GetChainIndex) refers to enginefault.o(i.EngineFault_NullPointerGuard_Handle) for EngineFault_NullPointerGuard_Handle
    sprites_animation.o(i.SpritesAnim_GetManagerIndex) refers to enginefault.o(i.EngineFault_NullPointerGuard_Handle) for EngineFault_NullPointerGuard_Handle
    sprites_animation.o(i.SpritesAnim_InsertNewFrm) refers to rb_tree.o(i.search) for search
    sprites_animation.o(i.SpritesAnim_InsertNewFrm) refers to heap_solution_1.o(i.c_malloc) for c_malloc
    sprites_animation.o(i.SpritesAnim_InsertNewFrm) refers to fflt_clz.o(x$fpl$ffltu) for __aeabi_ui2f
    sprites_animation.o(i.SpritesAnim_InsertNewFrm) refers to fdiv.o(x$fpl$fdiv) for __aeabi_fdiv
    sprites_animation.o(i.SpritesAnim_InsertNewFrm) refers to heap_solution_1.o(i.c_free) for c_free
    sprites_animation.o(i.SpritesAnim_InsertNewFrm) refers to sprites_animation.o(.data) for Sprites_Header
    sprites_animation.o(i.SpritesAnim_SwitchDefaultChain) refers to sprites_animation.o(i.SpritesAnim_SwitchChain) for SpritesAnim_SwitchChain
    sprites_animation.o(i.SpritesAnim_Update) refers to d2f.o(x$fpl$d2f) for __aeabi_d2f
    sprites_animation.o(i.SpritesAnim_Update) refers to faddsub_clz.o(x$fpl$fadd) for __aeabi_fadd
    sprites_animation.o(i.SpritesAnim_Update) refers to faddsub_clz.o(x$fpl$fsub) for __aeabi_fsub
    sprites_animation.o(i.SpritesAnim_Update) refers to frleqf.o(x$fpl$frleqf) for __aeabi_cfrcmple
    sprites_animation.o(i.SpritesAnim_Update) refers to frameratestrategy.o(.data) for DeltaTime
    sprites_logical.o(i.BresenhamLine_WallDetect) refers to worldmap.o(i.WorldMap_GetCurrentMapPos) for WorldMap_GetCurrentMapPos
    sprites_logical.o(i.BresenhamLine_WallDetect) refers to worldmap.o(i.WorldMap_GetWorldMap) for WorldMap_GetWorldMap
    sprites_logical.o(i.BresenhamLine_WallDetect) refers to enginefault.o(i.EngineFault_IllegalAccess_Handle) for EngineFault_IllegalAccess_Handle
    sprites_logical.o(i.BresenhamLine_WallDetect) refers to worldmap.o(i.WorldMap_Extract) for WorldMap_Extract
    sprites_logical.o(i.CalculateStepDistance) refers to daddsub_clz.o(x$fpl$drsb) for __aeabi_drsub
    sprites_logical.o(i.CalculateStepDistance) refers to daddsub_clz.o(x$fpl$dsub) for __aeabi_dsub
    sprites_logical.o(i.CalculateStepDistance) refers to ddiv.o(x$fpl$ddiv) for __aeabi_ddiv
    sprites_logical.o(i.CalculateStepDistance) refers to dleqf.o(x$fpl$dleqf) for __aeabi_cdcmple
    sprites_logical.o(i.CalculateStepDistance) refers to drleqf.o(x$fpl$drleqf) for __aeabi_cdrcmple
    sprites_logical.o(i.CalculateStepDistance) refers to dflt_clz.o(x$fpl$dflt) for __aeabi_i2d
    sprites_logical.o(i.CalculateStepDistance) refers to dmul.o(x$fpl$dmul) for __aeabi_dmul
    sprites_logical.o(i.CalculateStepDistance) refers to daddsub_clz.o(x$fpl$dadd) for __aeabi_dadd
    sprites_logical.o(i.CalculateStepDistance) refers to sqrt.o(i.sqrt) for sqrt
    sprites_logical.o(i.SpritesData_GetPos) refers to enginefault.o(i.EngineFault_NullPointerGuard_Handle) for EngineFault_NullPointerGuard_Handle
    sprites_logical.o(i.SpritesData_GetVerticalHeight) refers to enginefault.o(i.EngineFault_NullPointerGuard_Handle) for EngineFault_NullPointerGuard_Handle
    sprites_logical.o(i.SpritesMov_Backward) refers to worldmap.o(i.WorldMap_GetCurrentMapPos) for WorldMap_GetCurrentMapPos
    sprites_logical.o(i.SpritesMov_Backward) refers to worldmap.o(i.WorldMap_GetWorldMap) for WorldMap_GetWorldMap
    sprites_logical.o(i.SpritesMov_Backward) refers to dmul.o(x$fpl$dmul) for __aeabi_dmul
    sprites_logical.o(i.SpritesMov_Backward) refers to daddsub_clz.o(x$fpl$drsb) for __aeabi_drsub
    sprites_logical.o(i.SpritesMov_Backward) refers to dfix.o(x$fpl$dfix) for __aeabi_d2iz
    sprites_logical.o(i.SpritesMov_Backward) refers to worldmap.o(i.WorldMap_Extract) for WorldMap_Extract
    sprites_logical.o(i.SpritesMov_Backward) refers to frameratestrategy.o(.data) for DeltaTime
    sprites_logical.o(i.SpritesMov_Forward) refers to worldmap.o(i.WorldMap_GetCurrentMapPos) for WorldMap_GetCurrentMapPos
    sprites_logical.o(i.SpritesMov_Forward) refers to worldmap.o(i.WorldMap_GetWorldMap) for WorldMap_GetWorldMap
    sprites_logical.o(i.SpritesMov_Forward) refers to dmul.o(x$fpl$dmul) for __aeabi_dmul
    sprites_logical.o(i.SpritesMov_Forward) refers to daddsub_clz.o(x$fpl$dadd) for __aeabi_dadd
    sprites_logical.o(i.SpritesMov_Forward) refers to dfix.o(x$fpl$dfix) for __aeabi_d2iz
    sprites_logical.o(i.SpritesMov_Forward) refers to worldmap.o(i.WorldMap_Extract) for WorldMap_Extract
    sprites_logical.o(i.SpritesMov_Forward) refers to frameratestrategy.o(.data) for DeltaTime
    sprites_logical.o(i.SpritesMov_GetDir) refers to enginefault.o(i.EngineFault_NullPointerGuard_Handle) for EngineFault_NullPointerGuard_Handle
    sprites_logical.o(i.SpritesMov_Left) refers to worldmap.o(i.WorldMap_GetCurrentMapPos) for WorldMap_GetCurrentMapPos
    sprites_logical.o(i.SpritesMov_Left) refers to worldmap.o(i.WorldMap_GetWorldMap) for WorldMap_GetWorldMap
    sprites_logical.o(i.SpritesMov_Left) refers to dmul.o(x$fpl$dmul) for __aeabi_dmul
    sprites_logical.o(i.SpritesMov_Left) refers to daddsub_clz.o(x$fpl$dadd) for __aeabi_dadd
    sprites_logical.o(i.SpritesMov_Left) refers to dfix.o(x$fpl$dfix) for __aeabi_d2iz
    sprites_logical.o(i.SpritesMov_Left) refers to worldmap.o(i.WorldMap_Extract) for WorldMap_Extract
    sprites_logical.o(i.SpritesMov_Left) refers to frameratestrategy.o(.data) for DeltaTime
    sprites_logical.o(i.SpritesMov_Right) refers to worldmap.o(i.WorldMap_GetCurrentMapPos) for WorldMap_GetCurrentMapPos
    sprites_logical.o(i.SpritesMov_Right) refers to worldmap.o(i.WorldMap_GetWorldMap) for WorldMap_GetWorldMap
    sprites_logical.o(i.SpritesMov_Right) refers to dmul.o(x$fpl$dmul) for __aeabi_dmul
    sprites_logical.o(i.SpritesMov_Right) refers to daddsub_clz.o(x$fpl$dadd) for __aeabi_dadd
    sprites_logical.o(i.SpritesMov_Right) refers to dfix.o(x$fpl$dfix) for __aeabi_d2iz
    sprites_logical.o(i.SpritesMov_Right) refers to worldmap.o(i.WorldMap_Extract) for WorldMap_Extract
    sprites_logical.o(i.SpritesMov_Right) refers to frameratestrategy.o(.data) for DeltaTime
    sprites_logical.o(i.SpritesMov_SetDir) refers to drleqf.o(x$fpl$drleqf) for __aeabi_cdrcmple
    sprites_logical.o(i.SpritesMov_SetDir) refers to dleqf.o(x$fpl$dleqf) for __aeabi_cdcmple
    sprites_logical.o(i.SpritesMov_SetDir) refers to vector.o(i.vector_Normalize) for vector_Normalize
    sprites_logical.o(i.SpritesMov_SetDirToCamera) refers to daddsub_clz.o(x$fpl$dsub) for __aeabi_dsub
    sprites_logical.o(i.SpritesMov_SetDirToCamera) refers to drleqf.o(x$fpl$drleqf) for __aeabi_cdrcmple
    sprites_logical.o(i.SpritesMov_SetDirToCamera) refers to dleqf.o(x$fpl$dleqf) for __aeabi_cdcmple
    sprites_logical.o(i.SpritesMov_SetDirToCamera) refers to vector.o(i.vector_Normalize) for vector_Normalize
    sprites_logical.o(i.SpritesPriv_Replace) refers to sprites_logical.o(i.SpritesPriv_Reset) for SpritesPriv_Reset
    sprites_logical.o(i.SpritesStatic_ObjectCreate) refers to heap_solution_1.o(i.c_malloc) for c_malloc
    sprites_logical.o(i.SpritesStatic_ObjectCreate) refers to rb_tree.o(i.search) for search
    sprites_logical.o(i.SpritesStatic_ObjectCreate) refers to heap_solution_1.o(i.c_free) for c_free
    sprites_logical.o(i.SpritesStatic_ObjectCreate) refers to sprites_logical.o(i.SpritesTree_StaticAdd) for SpritesTree_StaticAdd
    sprites_logical.o(i.SpritesStatic_ObjectCreate) refers to sprites_animation.o(.data) for Sprites_Header
    sprites_logical.o(i.SpritesTree_Add) refers to heap_solution_1.o(i.c_malloc) for c_malloc
    sprites_logical.o(i.SpritesTree_Add) refers to sprites_logical.o(.data) for SpritesTree
    sprites_logical.o(i.SpritesTree_Init) refers to heap_solution_1.o(i.c_malloc) for c_malloc
    sprites_logical.o(i.SpritesTree_Init) refers to heap_solution_1.o(i.c_free) for c_free
    sprites_logical.o(i.SpritesTree_Init) refers to sprites_logical.o(.data) for SpritesTree
    sprites_logical.o(i.SpritesTree_Sort) refers to daddsub_clz.o(x$fpl$dsub) for __aeabi_dsub
    sprites_logical.o(i.SpritesTree_Sort) refers to dmul.o(x$fpl$dmul) for __aeabi_dmul
    sprites_logical.o(i.SpritesTree_Sort) refers to daddsub_clz.o(x$fpl$dadd) for __aeabi_dadd
    sprites_logical.o(i.SpritesTree_Sort) refers to d2f.o(x$fpl$d2f) for __aeabi_d2f
    sprites_logical.o(i.SpritesTree_Sort) refers to fleqf.o(x$fpl$fleqf) for __aeabi_cfcmple
    sprites_logical.o(i.SpritesTree_Sort) refers to sprites_logical.o(.data) for SpritesTree
    sprites_logical.o(i.SpritesTree_StaticAdd) refers to heap_solution_1.o(i.c_malloc) for c_malloc
    sprites_logical.o(i.SpritesTree_StaticAdd) refers to sprites_logical.o(.data) for SpritesTree
    sprites_logical.o(i.Sprites_Awaken) refers to sprites_logical.o(i.SpritesTree_NodeExtract) for SpritesTree_NodeExtract
    sprites_logical.o(i.Sprites_Awaken) refers to sprites_logical.o(.data) for SpritesSleepTree
    sprites_logical.o(i.Sprites_Exec) refers to sprites_logical.o(i.SpritesTree_Sort) for SpritesTree_Sort
    sprites_logical.o(i.Sprites_Exec) refers to sprites_logical.o(i.Sprites_SingleUpdate) for Sprites_SingleUpdate
    sprites_logical.o(i.Sprites_Exec) refers to sprites_logical.o(i.Sprites_SingleRender) for Sprites_SingleRender
    sprites_logical.o(i.Sprites_Exec) refers to sprites_logical.o(.data) for SpritesTree
    sprites_logical.o(i.Sprites_ObjectCreate) refers to heap_solution_1.o(i.c_malloc) for c_malloc
    sprites_logical.o(i.Sprites_ObjectCreate) refers to rb_tree.o(i.search) for search
    sprites_logical.o(i.Sprites_ObjectCreate) refers to heap_solution_1.o(i.c_free) for c_free
    sprites_logical.o(i.Sprites_ObjectCreate) refers to sprites_logical.o(i.SpritesTree_Add) for SpritesTree_Add
    sprites_logical.o(i.Sprites_ObjectCreate) refers to sprites_animation.o(.data) for Sprites_Header
    sprites_logical.o(i.Sprites_SingleRender) refers to daddsub_clz.o(x$fpl$dsub) for __aeabi_dsub
    sprites_logical.o(i.Sprites_SingleRender) refers to dmul.o(x$fpl$dmul) for __aeabi_dmul
    sprites_logical.o(i.Sprites_SingleRender) refers to ddiv.o(x$fpl$ddiv) for __aeabi_ddiv
    sprites_logical.o(i.Sprites_SingleRender) refers to daddsub_clz.o(x$fpl$dadd) for __aeabi_dadd
    sprites_logical.o(i.Sprites_SingleRender) refers to dleqf.o(x$fpl$dleqf) for __aeabi_cdcmple
    sprites_logical.o(i.Sprites_SingleRender) refers to dfix.o(x$fpl$dfix) for __aeabi_d2iz
    sprites_logical.o(i.Sprites_SingleRender) refers to dflt_clz.o(x$fpl$dflt) for __aeabi_i2d
    sprites_logical.o(i.Sprites_SingleRender) refers to drleqf.o(x$fpl$drleqf) for __aeabi_cdrcmple
    sprites_logical.o(i.Sprites_SingleRender) refers to sqrt.o(i.sqrt) for sqrt
    sprites_logical.o(i.Sprites_SingleRender) refers to camera.o(i.Camera_DeepBuffer_Read) for Camera_DeepBuffer_Read
    sprites_logical.o(i.Sprites_SingleRender) refers to sprites_animation.o(i.SpritesAnim_ExtractFrmData) for SpritesAnim_ExtractFrmData
    sprites_logical.o(i.Sprites_SingleRender) refers to canvas.o(i.Canvas_PixelOperate) for Canvas_PixelOperate
    sprites_logical.o(i.Sprites_SingleUpdate) refers to sprites_behaviortree.o(i.SpritesBT_BusExecute) for SpritesBT_BusExecute
    sprites_logical.o(i.Sprites_SingleUpdate) refers to sprites_animation.o(i.SpritesAnim_Update) for SpritesAnim_Update
    sprites_logical.o(i.Sprites_SingleUpdate) refers to enginefault.o(i.EngineFault_ExceptionEnumParam_Handle) for EngineFault_ExceptionEnumParam_Handle
    sprites_logical.o(i.Sprites_Sleep) refers to sprites_logical.o(i.SpritesTree_NodeExtract) for SpritesTree_NodeExtract
    sprites_logical.o(i.Sprites_Sleep) refers to sprites_logical.o(.data) for SpritesTree
    sprites_logical.o(i.Sprites_collisionWallValue) refers to enginefault.o(i.EngineFault_NullPointerGuard_Handle) for EngineFault_NullPointerGuard_Handle
    sprites_behaviortree.o(i.ExecuteBehaviorTree) refers to sprites_logical.o(i.SpritesPriv_Get) for SpritesPriv_Get
    sprites_behaviortree.o(i.ExecuteBehaviorTree) refers to sprites_behaviortree.o(i.Sprites_BT_GetChild) for Sprites_BT_GetChild
    sprites_behaviortree.o(i.SpritesBT_Action) refers to sprites_behaviortree.o(i.Sprites_BT_LCNodeCreate) for Sprites_BT_LCNodeCreate
    sprites_behaviortree.o(i.SpritesBT_BusExecute) refers to rb_tree.o(i.search) for search
    sprites_behaviortree.o(i.SpritesBT_BusExecute) refers to sprites_behaviortree.o(i.SpritesIT_Exec) for SpritesIT_Exec
    sprites_behaviortree.o(i.SpritesBT_BusExecute) refers to sprites_behaviortree.o(i.SpritesPhased_Exec) for SpritesPhased_Exec
    sprites_behaviortree.o(i.SpritesBT_BusExecute) refers to sprites_behaviortree.o(i.ExecuteBehaviorTree) for ExecuteBehaviorTree
    sprites_behaviortree.o(i.SpritesBT_BusExecute) refers to sprites_behaviortree.o(.data) for Sprites_BT_ManagerTree
    sprites_behaviortree.o(i.SpritesBT_Condition) refers to sprites_behaviortree.o(i.Sprites_BT_LCNodeCreate) for Sprites_BT_LCNodeCreate
    sprites_behaviortree.o(i.SpritesBT_Init) refers to rb_tree.o(i.search) for search
    sprites_behaviortree.o(i.SpritesBT_Init) refers to heap_solution_1.o(i.c_malloc) for c_malloc
    sprites_behaviortree.o(i.SpritesBT_Init) refers to rb_tree.o(i.rbInsert) for rbInsert
    sprites_behaviortree.o(i.SpritesBT_Init) refers to heap_solution_1.o(i.c_free) for c_free
    sprites_behaviortree.o(i.SpritesBT_Init) refers to sprites_behaviortree.o(.data) for Sprites_BT_ManagerTree
    sprites_behaviortree.o(i.SpritesBT_InsertBehavior) refers to heap_solution_1.o(i.c_malloc) for c_malloc
    sprites_behaviortree.o(i.SpritesBT_InsertBehavior) refers to heap_solution_1.o(i.c_realloc) for c_realloc
    sprites_behaviortree.o(i.SpritesBT_InsertBehavior) refers to heap_solution_1.o(i.c_free) for c_free
    sprites_behaviortree.o(i.SpritesBT_MountToRoot) refers to rb_tree.o(i.search) for search
    sprites_behaviortree.o(i.SpritesBT_MountToRoot) refers to sprites_behaviortree.o(.data) for Sprites_BT_ManagerTree
    sprites_behaviortree.o(i.SpritesBT_SelectorCreate) refers to sprites_behaviortree.o(i.Sprites_BT_ECNodeCreate) for Sprites_BT_ECNodeCreate
    sprites_behaviortree.o(i.SpritesBT_Sequence) refers to sprites_behaviortree.o(i.Sprites_BT_ECNodeCreate) for Sprites_BT_ECNodeCreate
    sprites_behaviortree.o(i.SpritesIT_Add) refers to rb_tree.o(i.search) for search
    sprites_behaviortree.o(i.SpritesIT_Add) refers to sprites_behaviortree.o(i.SpritesIT_RBStorageStrategyCreate) for SpritesIT_RBStorageStrategyCreate
    sprites_behaviortree.o(i.SpritesIT_Add) refers to heap_solution_1.o(i.c_free) for c_free
    sprites_behaviortree.o(i.SpritesIT_Add) refers to heap_solution_1.o(i.c_malloc) for c_malloc
    sprites_behaviortree.o(i.SpritesIT_Add) refers to rb_tree.o(i.rbInsert) for rbInsert
    sprites_behaviortree.o(i.SpritesIT_Add) refers to sprites_behaviortree.o(.data) for Sprites_BT_ManagerTree
    sprites_behaviortree.o(i.SpritesIT_Enable) refers to rb_tree.o(i.search) for search
    sprites_behaviortree.o(i.SpritesIT_Enable) refers to sprites_behaviortree.o(.data) for Sprites_BT_ManagerTree
    sprites_behaviortree.o(i.SpritesIT_Exec) refers to sprites_logical.o(i.SpritesPriv_Get) for SpritesPriv_Get
    sprites_behaviortree.o(i.SpritesIT_Exec) refers to sprites_behaviortree.o(i.SpritesIT_GetITNode) for SpritesIT_GetITNode
    sprites_behaviortree.o(i.SpritesIT_Exec) refers to enginefault.o(i.EngineFault_ExceptionEnumParam_Handle) for EngineFault_ExceptionEnumParam_Handle
    sprites_behaviortree.o(i.SpritesIT_GetITNode) refers to rb_tree.o(i.search) for search
    sprites_behaviortree.o(i.SpritesIT_RBStorageStrategyCreate) refers to heap_solution_1.o(i.c_malloc) for c_malloc
    sprites_behaviortree.o(i.SpritesIT_RBStorageStrategyCreate) refers to rb_tree.o(i.rbInsert) for rbInsert
    sprites_behaviortree.o(i.SpritesIT_RBStorageStrategyCreate) refers to heap_solution_1.o(i.c_free) for c_free
    sprites_behaviortree.o(i.SpritesIT_RBStorageStrategyCreate) refers to rb_tree.o(i.rbDelete) for rbDelete
    sprites_behaviortree.o(i.SpritesIT_Register) refers to rb_tree.o(i.search) for search
    sprites_behaviortree.o(i.SpritesIT_Register) refers to heap_solution_1.o(i.c_malloc) for c_malloc
    sprites_behaviortree.o(i.SpritesIT_Register) refers to heap_solution_1.o(i.c_free) for c_free
    sprites_behaviortree.o(i.SpritesIT_Register) refers to sprites_behaviortree.o(.data) for Sprites_BT_ManagerTree
    sprites_behaviortree.o(i.SpritesPhased_Exec) refers to sprites_logical.o(i.SpritesPriv_Get) for SpritesPriv_Get
    sprites_behaviortree.o(i.SpritesPhased_Exec) refers to enginefault.o(i.EngineFault_ExceptionEnumParam_Handle) for EngineFault_ExceptionEnumParam_Handle
    sprites_behaviortree.o(i.Sprites_BT_ECNodeCreate) refers to heap_solution_1.o(i.c_malloc) for c_malloc
    sprites_behaviortree.o(i.Sprites_BT_LCNodeCreate) refers to heap_solution_1.o(i.c_malloc) for c_malloc
    mistink.o(i.Font_Read) refers to mistink_font.o(.constdata) for OLED_F8x16
    mistink.o(i.M_Int) refers to _printf_percent.o(.ARM.Collect$$_printf_percent$$00000000) for _printf_percent
    mistink.o(i.M_Int) refers to _printf_d.o(.ARM.Collect$$_printf_percent$$00000009) for _printf_d
    mistink.o(i.M_Int) refers to _printf_dec.o(.text) for _printf_int_dec
    mistink.o(i.M_Int) refers to noretval__2sprintf.o(.text) for __2sprintf
    mistink.o(i.M_Int) refers to mistink.o(i.M_String) for M_String
    mistink.o(i.M_PictureLoad) refers to mistink.o(i.Picture_Coordinate) for Picture_Coordinate
    mistink.o(i.M_PictureLoad) refers to mistink.o(i.MistinkPixel_Operate) for MistinkPixel_Operate
    mistink.o(i.M_String) refers to strlen.o(.text) for strlen
    mistink.o(i.M_String) refers to mistink.o(i.Font_Read) for Font_Read
    mistink.o(i.M_String) refers to mistink.o(i.MistinkPixel_Operate) for MistinkPixel_Operate
    mistink.o(i.MistinkPixel_Operate) refers to mistink.o(i.Bit_Modification) for Bit_Modification
    mistink_displayer.o(i.MistinkDisplayer_Create) refers to heap_solution_1.o(i.memory_pool_init) for memory_pool_init
    mistink_displayer.o(i.MistinkDisplayer_Create) refers to heap_solution_1.o(i.c_malloc) for c_malloc
    mistink_displayer.o(i.MistinkDisplayer_Free) refers to heap_solution_1.o(i.c_free) for c_free
    m_stm32f103c8t6.o(i.OLED_BufferOutput) refers to m_stm32f103c8t6.o(i.OLED_WR_Byte) for OLED_WR_Byte
    m_stm32f103c8t6.o(i.OLED_Clear) refers to m_stm32f103c8t6.o(i.OLED_WR_Byte) for OLED_WR_Byte
    m_stm32f103c8t6.o(i.OLED_Init) refers to m_stm32f103c8t6.o(i.OLED_Port_Init) for OLED_Port_Init
    m_stm32f103c8t6.o(i.OLED_Init) refers to stm32f10x_gpio.o(i.GPIO_ResetBits) for GPIO_ResetBits
    m_stm32f103c8t6.o(i.OLED_Init) refers to stm32f10x_gpio.o(i.GPIO_SetBits) for GPIO_SetBits
    m_stm32f103c8t6.o(i.OLED_Init) refers to m_stm32f103c8t6.o(i.OLED_WR_Byte) for OLED_WR_Byte
    m_stm32f103c8t6.o(i.OLED_Port_Init) refers to stm32f10x_rcc.o(i.RCC_APB2PeriphClockCmd) for RCC_APB2PeriphClockCmd
    m_stm32f103c8t6.o(i.OLED_Port_Init) refers to stm32f10x_gpio.o(i.GPIO_Init) for GPIO_Init
    m_stm32f103c8t6.o(i.OLED_Port_Init) refers to stm32f10x_gpio.o(i.GPIO_SetBits) for GPIO_SetBits
    m_stm32f103c8t6.o(i.OLED_Port_Init) refers to stm32f10x_gpio.o(i.GPIO_ResetBits) for GPIO_ResetBits
    m_stm32f103c8t6.o(i.OLED_Port_Init) refers to stm32f10x_spi.o(i.SPI_Init) for SPI_Init
    m_stm32f103c8t6.o(i.OLED_Port_Init) refers to stm32f10x_spi.o(i.SPI_Cmd) for SPI_Cmd
    m_stm32f103c8t6.o(i.OLED_WR_Byte) refers to stm32f10x_gpio.o(i.GPIO_ResetBits) for GPIO_ResetBits
    m_stm32f103c8t6.o(i.OLED_WR_Byte) refers to stm32f10x_gpio.o(i.GPIO_SetBits) for GPIO_SetBits
    m_stm32f103c8t6.o(i.OLED_WR_Byte) refers to stm32f10x_spi.o(i.SPI_I2S_GetFlagStatus) for SPI_I2S_GetFlagStatus
    m_stm32f103c8t6.o(i.OLED_WR_Byte) refers to stm32f10x_spi.o(i.SPI_I2S_SendData) for SPI_I2S_SendData
    __2sprintf.o(.text) refers to _printf_char_common.o(.text) for _printf_char_common
    __2sprintf.o(.text) refers to _sputc.o(.text) for _sputc
    noretval__2sprintf.o(.text) refers to _printf_char_common.o(.text) for _printf_char_common
    noretval__2sprintf.o(.text) refers to _sputc.o(.text) for _sputc
    __printf.o(.text) refers to _printf_percent.o(.ARM.Collect$$_printf_percent$$00000000) for _printf_percent
    _printf_dec.o(.text) refers to _printf_intcommon.o(.text) for _printf_int_common
    __printf_flags.o(.text) refers to _printf_percent.o(.ARM.Collect$$_printf_percent$$00000000) for _printf_percent
    __printf_flags.o(.text) refers to __printf_flags.o(.constdata) for .constdata
    __printf_ss.o(.text) refers to _printf_percent.o(.ARM.Collect$$_printf_percent$$00000000) for _printf_percent
    __printf_flags_ss.o(.text) refers to _printf_percent.o(.ARM.Collect$$_printf_percent$$00000000) for _printf_percent
    __printf_flags_ss.o(.text) refers to __printf_flags_ss.o(.constdata) for .constdata
    __printf_wp.o(.text) refers to __printf_wp.o(i._is_digit) for _is_digit
    __printf_wp.o(.text) refers to _printf_percent.o(.ARM.Collect$$_printf_percent$$00000000) for _printf_percent
    __printf_flags_wp.o(.text) refers to __printf_wp.o(i._is_digit) for _is_digit
    __printf_flags_wp.o(.text) refers to _printf_percent.o(.ARM.Collect$$_printf_percent$$00000000) for _printf_percent
    __printf_flags_wp.o(.text) refers to __printf_flags_wp.o(.constdata) for .constdata
    __printf_ss_wp.o(.text) refers to __printf_wp.o(i._is_digit) for _is_digit
    __printf_ss_wp.o(.text) refers to _printf_percent.o(.ARM.Collect$$_printf_percent$$00000000) for _printf_percent
    __printf_flags_ss_wp.o(.text) refers to __printf_wp.o(i._is_digit) for _is_digit
    __printf_flags_ss_wp.o(.text) refers to _printf_percent.o(.ARM.Collect$$_printf_percent$$00000000) for _printf_percent
    __printf_flags_ss_wp.o(.text) refers to __printf_flags_ss_wp.o(.constdata) for .constdata
    _printf_d.o(.ARM.Collect$$_printf_percent$$00000009) refers (Weak) to _printf_dec.o(.text) for _printf_int_dec
    _printf_percent.o(.ARM.Collect$$_printf_percent$$00000000) refers (Special) to _printf_percent_end.o(.ARM.Collect$$_printf_percent$$00000017) for _printf_percent_end
    __main.o(!!!main) refers to __rtentry.o(.ARM.Collect$$rtentry$$00000000) for __rt_entry
    d2f.o(x$fpl$d2f) refers (Special) to usenofp.o(x$fpl$usenofp) for __I$use$fp
    d2f.o(x$fpl$d2f) refers to fretinf.o(x$fpl$fretinf) for __fpl_fretinf
    d2f.o(x$fpl$d2f) refers to dnaninf.o(x$fpl$dnaninf) for __fpl_dnaninf
    daddsub_clz.o(x$fpl$dadd) refers (Special) to usenofp.o(x$fpl$usenofp) for __I$use$fp
    daddsub_clz.o(x$fpl$dadd) refers to daddsub_clz.o(x$fpl$dsub) for _dsub1
    daddsub_clz.o(x$fpl$dadd) refers to dretinf.o(x$fpl$dretinf) for __fpl_dretinf
    daddsub_clz.o(x$fpl$dadd) refers to dnaninf.o(x$fpl$dnaninf) for __fpl_dnaninf
    daddsub_clz.o(x$fpl$drsb) refers (Special) to usenofp.o(x$fpl$usenofp) for __I$use$fp
    daddsub_clz.o(x$fpl$drsb) refers to daddsub_clz.o(x$fpl$dadd) for _dadd1
    daddsub_clz.o(x$fpl$drsb) refers to daddsub_clz.o(x$fpl$dsub) for _dsub1
    daddsub_clz.o(x$fpl$dsub) refers (Special) to usenofp.o(x$fpl$usenofp) for __I$use$fp
    daddsub_clz.o(x$fpl$dsub) refers to daddsub_clz.o(x$fpl$dadd) for _dadd1
    daddsub_clz.o(x$fpl$dsub) refers to dnaninf.o(x$fpl$dnaninf) for __fpl_dnaninf
    ddiv.o(x$fpl$drdiv) refers (Special) to usenofp.o(x$fpl$usenofp) for __I$use$fp
    ddiv.o(x$fpl$drdiv) refers to ddiv.o(x$fpl$ddiv) for ddiv_entry
    ddiv.o(x$fpl$ddiv) refers (Special) to usenofp.o(x$fpl$usenofp) for __I$use$fp
    ddiv.o(x$fpl$ddiv) refers to dretinf.o(x$fpl$dretinf) for __fpl_dretinf
    ddiv.o(x$fpl$ddiv) refers to dnaninf.o(x$fpl$dnaninf) for __fpl_dnaninf
    deqf.o(x$fpl$deqf) refers (Special) to usenofp.o(x$fpl$usenofp) for __I$use$fp
    deqf.o(x$fpl$deqf) refers to dnaninf.o(x$fpl$dnaninf) for __fpl_dnaninf
    deqf.o(x$fpl$deqf) refers to dcmpi.o(x$fpl$dcmpinf) for __fpl_dcmp_Inf
    dfix.o(x$fpl$dfix) refers (Special) to usenofp.o(x$fpl$usenofp) for __I$use$fp
    dfix.o(x$fpl$dfix) refers to dnaninf.o(x$fpl$dnaninf) for __fpl_dnaninf
    dfix.o(x$fpl$dfixr) refers (Special) to usenofp.o(x$fpl$usenofp) for __I$use$fp
    dfix.o(x$fpl$dfixr) refers to dnaninf.o(x$fpl$dnaninf) for __fpl_dnaninf
    dflt_clz.o(x$fpl$dfltu) refers (Special) to usenofp.o(x$fpl$usenofp) for __I$use$fp
    dflt_clz.o(x$fpl$dflt) refers (Special) to usenofp.o(x$fpl$usenofp) for __I$use$fp
    dflt_clz.o(x$fpl$dfltn) refers (Special) to usenofp.o(x$fpl$usenofp) for __I$use$fp
    dleqf.o(x$fpl$dleqf) refers (Special) to usenofp.o(x$fpl$usenofp) for __I$use$fp
    dleqf.o(x$fpl$dleqf) refers to dnaninf.o(x$fpl$dnaninf) for __fpl_dnaninf
    dleqf.o(x$fpl$dleqf) refers to dcmpi.o(x$fpl$dcmpinf) for __fpl_dcmp_Inf
    dmul.o(x$fpl$dmul) refers (Special) to usenofp.o(x$fpl$usenofp) for __I$use$fp
    dmul.o(x$fpl$dmul) refers to dretinf.o(x$fpl$dretinf) for __fpl_dretinf
    dmul.o(x$fpl$dmul) refers to dnaninf.o(x$fpl$dnaninf) for __fpl_dnaninf
    drleqf.o(x$fpl$drleqf) refers (Special) to usenofp.o(x$fpl$usenofp) for __I$use$fp
    drleqf.o(x$fpl$drleqf) refers to dleqf.o(x$fpl$dleqf) for __fpl_dcmple_InfNaN
    faddsub_clz.o(x$fpl$fadd) refers (Special) to usenofp.o(x$fpl$usenofp) for __I$use$fp
    faddsub_clz.o(x$fpl$fadd) refers to faddsub_clz.o(x$fpl$fsub) for _fsub1
    faddsub_clz.o(x$fpl$fadd) refers to fretinf.o(x$fpl$fretinf) for __fpl_fretinf
    faddsub_clz.o(x$fpl$fadd) refers to fnaninf.o(x$fpl$fnaninf) for __fpl_fnaninf
    faddsub_clz.o(x$fpl$frsb) refers (Special) to usenofp.o(x$fpl$usenofp) for __I$use$fp
    faddsub_clz.o(x$fpl$frsb) refers to faddsub_clz.o(x$fpl$fadd) for _fadd1
    faddsub_clz.o(x$fpl$frsb) refers to faddsub_clz.o(x$fpl$fsub) for _fsub1
    faddsub_clz.o(x$fpl$fsub) refers (Special) to usenofp.o(x$fpl$usenofp) for __I$use$fp
    faddsub_clz.o(x$fpl$fsub) refers to faddsub_clz.o(x$fpl$fadd) for _fadd1
    faddsub_clz.o(x$fpl$fsub) refers to fnaninf.o(x$fpl$fnaninf) for __fpl_fnaninf
    fdiv.o(x$fpl$frdiv) refers (Special) to usenofp.o(x$fpl$usenofp) for __I$use$fp
    fdiv.o(x$fpl$frdiv) refers to fdiv.o(x$fpl$fdiv) for _fdiv1
    fdiv.o(x$fpl$fdiv) refers (Special) to usenofp.o(x$fpl$usenofp) for __I$use$fp
    fdiv.o(x$fpl$fdiv) refers to fretinf.o(x$fpl$fretinf) for __fpl_fretinf
    fdiv.o(x$fpl$fdiv) refers to fnaninf.o(x$fpl$fnaninf) for __fpl_fnaninf
    fflt_clz.o(x$fpl$ffltu) refers (Special) to usenofp.o(x$fpl$usenofp) for __I$use$fp
    fflt_clz.o(x$fpl$fflt) refers (Special) to usenofp.o(x$fpl$usenofp) for __I$use$fp
    fflt_clz.o(x$fpl$ffltn) refers (Special) to usenofp.o(x$fpl$usenofp) for __I$use$fp
    fleqf.o(x$fpl$fleqf) refers (Special) to usenofp.o(x$fpl$usenofp) for __I$use$fp
    fleqf.o(x$fpl$fleqf) refers to fnaninf.o(x$fpl$fnaninf) for __fpl_fnaninf
    fleqf.o(x$fpl$fleqf) refers to fcmpi.o(x$fpl$fcmpinf) for __fpl_fcmp_Inf
    frleqf.o(x$fpl$frleqf) refers (Special) to usenofp.o(x$fpl$usenofp) for __I$use$fp
    frleqf.o(x$fpl$frleqf) refers to fleqf.o(x$fpl$fleqf) for __fpl_fcmple_InfNaN
    cos.o(i.__softfp_cos) refers (Special) to usenofp.o(x$fpl$usenofp) for __I$use$fp
    cos.o(i.__softfp_cos) refers to cos.o(i.cos) for cos
    cos.o(i.cos) refers (Special) to usenofp.o(x$fpl$usenofp) for __I$use$fp
    cos.o(i.cos) refers to _rserrno.o(.text) for __set_errno
    cos.o(i.cos) refers to dunder.o(i.__mathlib_dbl_invalid) for __mathlib_dbl_invalid
    cos.o(i.cos) refers to dunder.o(i.__mathlib_dbl_infnan) for __mathlib_dbl_infnan
    cos.o(i.cos) refers to rred.o(i.__ieee754_rem_pio2) for __ieee754_rem_pio2
    cos.o(i.cos) refers to sin_i.o(i.__kernel_sin) for __kernel_sin
    cos.o(i.cos) refers to cos_i.o(i.__kernel_cos) for __kernel_cos
    cos_x.o(i.____softfp_cos$lsc) refers (Special) to usenofp.o(x$fpl$usenofp) for __I$use$fp
    cos_x.o(i.____softfp_cos$lsc) refers to cos_x.o(i.__cos$lsc) for __cos$lsc
    cos_x.o(i.__cos$lsc) refers (Special) to usenofp.o(x$fpl$usenofp) for __I$use$fp
    cos_x.o(i.__cos$lsc) refers to _rserrno.o(.text) for __set_errno
    cos_x.o(i.__cos$lsc) refers to dunder.o(i.__mathlib_dbl_infnan) for __mathlib_dbl_infnan
    cos_x.o(i.__cos$lsc) refers to rred.o(i.__ieee754_rem_pio2) for __ieee754_rem_pio2
    cos_x.o(i.__cos$lsc) refers to sin_i.o(i.__kernel_sin) for __kernel_sin
    cos_x.o(i.__cos$lsc) refers to cos_i.o(i.__kernel_cos) for __kernel_cos
    sin.o(i.__softfp_sin) refers (Special) to usenofp.o(x$fpl$usenofp) for __I$use$fp
    sin.o(i.__softfp_sin) refers to sin.o(i.sin) for sin
    sin.o(i.sin) refers (Special) to usenofp.o(x$fpl$usenofp) for __I$use$fp
    sin.o(i.sin) refers to _rserrno.o(.text) for __set_errno
    sin.o(i.sin) refers to dunder.o(i.__mathlib_dbl_invalid) for __mathlib_dbl_invalid
    sin.o(i.sin) refers to dunder.o(i.__mathlib_dbl_infnan) for __mathlib_dbl_infnan
    sin.o(i.sin) refers to rred.o(i.__ieee754_rem_pio2) for __ieee754_rem_pio2
    sin.o(i.sin) refers to cos_i.o(i.__kernel_cos) for __kernel_cos
    sin.o(i.sin) refers to sin_i.o(i.__kernel_sin) for __kernel_sin
    sin_x.o(i.____softfp_sin$lsc) refers (Special) to usenofp.o(x$fpl$usenofp) for __I$use$fp
    sin_x.o(i.____softfp_sin$lsc) refers to sin_x.o(i.__sin$lsc) for __sin$lsc
    sin_x.o(i.__sin$lsc) refers (Special) to usenofp.o(x$fpl$usenofp) for __I$use$fp
    sin_x.o(i.__sin$lsc) refers to _rserrno.o(.text) for __set_errno
    sin_x.o(i.__sin$lsc) refers to dunder.o(i.__mathlib_dbl_infnan) for __mathlib_dbl_infnan
    sin_x.o(i.__sin$lsc) refers to rred.o(i.__ieee754_rem_pio2) for __ieee754_rem_pio2
    sin_x.o(i.__sin$lsc) refers to cos_i.o(i.__kernel_cos) for __kernel_cos
    sin_x.o(i.__sin$lsc) refers to sin_i.o(i.__kernel_sin) for __kernel_sin
    sqrt.o(i.__softfp_sqrt) refers (Special) to usenofp.o(x$fpl$usenofp) for __I$use$fp
    sqrt.o(i.__softfp_sqrt) refers to dsqrt_noumaal.o(x$fpl$dsqrt) for _dsqrt
    sqrt.o(i.__softfp_sqrt) refers to _rserrno.o(.text) for __set_errno
    sqrt.o(i.sqrt) refers (Special) to usenofp.o(x$fpl$usenofp) for __I$use$fp
    sqrt.o(i.sqrt) refers to dsqrt_noumaal.o(x$fpl$dsqrt) for _dsqrt
    sqrt.o(i.sqrt) refers to _rserrno.o(.text) for __set_errno
    sqrt_x.o(i.____softfp_sqrt$lsc) refers (Special) to usenofp.o(x$fpl$usenofp) for __I$use$fp
    sqrt_x.o(i.____softfp_sqrt$lsc) refers to dleqf.o(x$fpl$dleqf) for __aeabi_cdcmple
    sqrt_x.o(i.____softfp_sqrt$lsc) refers to _rserrno.o(.text) for __set_errno
    sqrt_x.o(i.____softfp_sqrt$lsc) refers to dsqrt_noumaal.o(x$fpl$dsqrt) for _dsqrt
    sqrt_x.o(i.__sqrt$lsc) refers (Special) to usenofp.o(x$fpl$usenofp) for __I$use$fp
    sqrt_x.o(i.__sqrt$lsc) refers to dleqf.o(x$fpl$dleqf) for __aeabi_cdcmple
    sqrt_x.o(i.__sqrt$lsc) refers to _rserrno.o(.text) for __set_errno
    sqrt_x.o(i.__sqrt$lsc) refers to dsqrt_noumaal.o(x$fpl$dsqrt) for _dsqrt
    tan.o(i.__softfp_tan) refers (Special) to usenofp.o(x$fpl$usenofp) for __I$use$fp
    tan.o(i.__softfp_tan) refers to _rserrno.o(.text) for __set_errno
    tan.o(i.__softfp_tan) refers to dunder.o(i.__mathlib_dbl_invalid) for __mathlib_dbl_invalid
    tan.o(i.__softfp_tan) refers to dunder.o(i.__mathlib_dbl_infnan) for __mathlib_dbl_infnan
    tan.o(i.__softfp_tan) refers to rred.o(i.__ieee754_rem_pio2) for __ieee754_rem_pio2
    tan.o(i.__softfp_tan) refers to tan_i.o(i.__kernel_tan) for __kernel_tan
    tan.o(i.tan) refers (Special) to usenofp.o(x$fpl$usenofp) for __I$use$fp
    tan.o(i.tan) refers to _rserrno.o(.text) for __set_errno
    tan.o(i.tan) refers to dunder.o(i.__mathlib_dbl_invalid) for __mathlib_dbl_invalid
    tan.o(i.tan) refers to dunder.o(i.__mathlib_dbl_infnan) for __mathlib_dbl_infnan
    tan.o(i.tan) refers to rred.o(i.__ieee754_rem_pio2) for __ieee754_rem_pio2
    tan.o(i.tan) refers to tan_i.o(i.__kernel_tan) for __kernel_tan
    tan_x.o(i.____softfp_tan$lsc) refers (Special) to usenofp.o(x$fpl$usenofp) for __I$use$fp
    tan_x.o(i.____softfp_tan$lsc) refers to _rserrno.o(.text) for __set_errno
    tan_x.o(i.____softfp_tan$lsc) refers to dunder.o(i.__mathlib_dbl_infnan) for __mathlib_dbl_infnan
    tan_x.o(i.____softfp_tan$lsc) refers to rred.o(i.__ieee754_rem_pio2) for __ieee754_rem_pio2
    tan_x.o(i.____softfp_tan$lsc) refers to tan_i.o(i.__kernel_tan) for __kernel_tan
    tan_x.o(i.__tan$lsc) refers (Special) to usenofp.o(x$fpl$usenofp) for __I$use$fp
    tan_x.o(i.__tan$lsc) refers to _rserrno.o(.text) for __set_errno
    tan_x.o(i.__tan$lsc) refers to dunder.o(i.__mathlib_dbl_infnan) for __mathlib_dbl_infnan
    tan_x.o(i.__tan$lsc) refers to rred.o(i.__ieee754_rem_pio2) for __ieee754_rem_pio2
    tan_x.o(i.__tan$lsc) refers to tan_i.o(i.__kernel_tan) for __kernel_tan
    __rtentry.o(.ARM.Collect$$rtentry$$00000000) refers (Special) to __rtentry2.o(.ARM.Collect$$rtentry$$0000000A) for __rt_entry_li
    __rtentry.o(.ARM.Collect$$rtentry$$00000000) refers (Special) to __rtentry2.o(.ARM.Collect$$rtentry$$0000000D) for __rt_entry_main
    __rtentry.o(.ARM.Collect$$rtentry$$00000000) refers (Special) to __rtentry2.o(.ARM.Collect$$rtentry$$0000000C) for __rt_entry_postli_1
    __rtentry.o(.ARM.Collect$$rtentry$$00000000) refers (Special) to __rtentry2.o(.ARM.Collect$$rtentry$$00000009) for __rt_entry_postsh_1
    __rtentry.o(.ARM.Collect$$rtentry$$00000000) refers (Special) to __rtentry2.o(.ARM.Collect$$rtentry$$00000002) for __rt_entry_presh_1
    __rtentry.o(.ARM.Collect$$rtentry$$00000000) refers (Special) to __rtentry4.o(.ARM.Collect$$rtentry$$00000004) for __rt_entry_sh
    _rserrno.o(.text) refers to rt_errno_addr_intlibspace.o(.text) for __aeabi_errno_addr
    _printf_char_common.o(.text) refers to __printf.o(.text) for __printf
    dcmpi.o(x$fpl$dcmpinf) refers (Special) to usenofp.o(x$fpl$usenofp) for __I$use$fp
    dnaninf.o(x$fpl$dnaninf) refers (Special) to usenofp.o(x$fpl$usenofp) for __I$use$fp
    dretinf.o(x$fpl$dretinf) refers (Special) to usenofp.o(x$fpl$usenofp) for __I$use$fp
    dsqrt_noumaal.o(x$fpl$dsqrt) refers (Special) to usenofp.o(x$fpl$usenofp) for __I$use$fp
    dsqrt_noumaal.o(x$fpl$dsqrt) refers to dnaninf.o(x$fpl$dnaninf) for __fpl_dnaninf
    fcmpi.o(x$fpl$fcmpinf) refers (Special) to usenofp.o(x$fpl$usenofp) for __I$use$fp
    fnaninf.o(x$fpl$fnaninf) refers (Special) to usenofp.o(x$fpl$usenofp) for __I$use$fp
    fretinf.o(x$fpl$fretinf) refers (Special) to usenofp.o(x$fpl$usenofp) for __I$use$fp
    cos_i.o(i.__kernel_cos) refers (Special) to usenofp.o(x$fpl$usenofp) for __I$use$fp
    cos_i.o(i.__kernel_cos) refers to dfix.o(x$fpl$dfix) for __aeabi_d2iz
    cos_i.o(i.__kernel_cos) refers to dmul.o(x$fpl$dmul) for __aeabi_dmul
    cos_i.o(i.__kernel_cos) refers to poly.o(i.__kernel_poly) for __kernel_poly
    cos_i.o(i.__kernel_cos) refers to daddsub_clz.o(x$fpl$dsub) for __aeabi_dsub
    cos_i.o(i.__kernel_cos) refers to scalbn.o(x$fpl$scalbn) for __ARM_scalbn
    cos_i.o(i.__kernel_cos) refers to daddsub_clz.o(x$fpl$drsb) for __aeabi_drsub
    cos_i.o(i.__kernel_cos) refers to cos_i.o(.constdata) for .constdata
    cos_i.o(.constdata) refers (Special) to usenofp.o(x$fpl$usenofp) for __I$use$fp
    dunder.o(i.__mathlib_dbl_divzero) refers to ddiv.o(x$fpl$ddiv) for __aeabi_ddiv
    dunder.o(i.__mathlib_dbl_infnan) refers to scalbn.o(x$fpl$scalbn) for __ARM_scalbn
    dunder.o(i.__mathlib_dbl_infnan2) refers to daddsub_clz.o(x$fpl$dadd) for __aeabi_dadd
    dunder.o(i.__mathlib_dbl_invalid) refers to ddiv.o(x$fpl$ddiv) for __aeabi_ddiv
    dunder.o(i.__mathlib_dbl_overflow) refers to scalbn.o(x$fpl$scalbn) for __ARM_scalbn
    dunder.o(i.__mathlib_dbl_posinfnan) refers to dmul.o(x$fpl$dmul) for __aeabi_dmul
    dunder.o(i.__mathlib_dbl_underflow) refers to scalbn.o(x$fpl$scalbn) for __ARM_scalbn
    rred.o(i.__ieee754_rem_pio2) refers (Special) to usenofp.o(x$fpl$usenofp) for __I$use$fp
    rred.o(i.__ieee754_rem_pio2) refers to daddsub_clz.o(x$fpl$dsub) for __aeabi_dsub
    rred.o(i.__ieee754_rem_pio2) refers to daddsub_clz.o(x$fpl$dadd) for __aeabi_dadd
    rred.o(i.__ieee754_rem_pio2) refers to dmul.o(x$fpl$dmul) for __aeabi_dmul
    rred.o(i.__ieee754_rem_pio2) refers to dfix.o(x$fpl$dfix) for __aeabi_d2iz
    rred.o(i.__ieee754_rem_pio2) refers to dflt_clz.o(x$fpl$dflt) for __aeabi_i2d
    rred.o(i.__ieee754_rem_pio2) refers to daddsub_clz.o(x$fpl$drsb) for __aeabi_drsub
    rred.o(i.__ieee754_rem_pio2) refers to dflt_clz.o(x$fpl$dfltu) for __aeabi_ui2d
    rred.o(i.__ieee754_rem_pio2) refers to scalbn.o(x$fpl$scalbn) for __ARM_scalbn
    rred.o(i.__ieee754_rem_pio2) refers to rred.o(.constdata) for .constdata
    rred.o(i.__use_accurate_range_reduction) refers (Special) to usenofp.o(x$fpl$usenofp) for __I$use$fp
    rred.o(.constdata) refers (Special) to usenofp.o(x$fpl$usenofp) for __I$use$fp
    sin_i.o(i.__kernel_sin) refers (Special) to usenofp.o(x$fpl$usenofp) for __I$use$fp
    sin_i.o(i.__kernel_sin) refers to fpclassify.o(i.__ARM_fpclassify) for __ARM_fpclassify
    sin_i.o(i.__kernel_sin) refers to dunder.o(i.__mathlib_dbl_underflow) for __mathlib_dbl_underflow
    sin_i.o(i.__kernel_sin) refers to dmul.o(x$fpl$dmul) for __aeabi_dmul
    sin_i.o(i.__kernel_sin) refers to poly.o(i.__kernel_poly) for __kernel_poly
    sin_i.o(i.__kernel_sin) refers to scalbn.o(x$fpl$scalbn) for __ARM_scalbn
    sin_i.o(i.__kernel_sin) refers to daddsub_clz.o(x$fpl$dsub) for __aeabi_dsub
    sin_i.o(i.__kernel_sin) refers to daddsub_clz.o(x$fpl$drsb) for __aeabi_drsub
    sin_i.o(i.__kernel_sin) refers to daddsub_clz.o(x$fpl$dadd) for __aeabi_dadd
    sin_i.o(i.__kernel_sin) refers to sin_i.o(.constdata) for .constdata
    sin_i.o(.constdata) refers (Special) to usenofp.o(x$fpl$usenofp) for __I$use$fp
    sin_i_x.o(i.____kernel_sin$lsc) refers (Special) to usenofp.o(x$fpl$usenofp) for __I$use$fp
    sin_i_x.o(i.____kernel_sin$lsc) refers to dmul.o(x$fpl$dmul) for __aeabi_dmul
    sin_i_x.o(i.____kernel_sin$lsc) refers to poly.o(i.__kernel_poly) for __kernel_poly
    sin_i_x.o(i.____kernel_sin$lsc) refers to scalbn.o(x$fpl$scalbn) for __ARM_scalbn
    sin_i_x.o(i.____kernel_sin$lsc) refers to daddsub_clz.o(x$fpl$dsub) for __aeabi_dsub
    sin_i_x.o(i.____kernel_sin$lsc) refers to daddsub_clz.o(x$fpl$drsb) for __aeabi_drsub
    sin_i_x.o(i.____kernel_sin$lsc) refers to daddsub_clz.o(x$fpl$dadd) for __aeabi_dadd
    sin_i_x.o(i.____kernel_sin$lsc) refers to sin_i_x.o(.constdata) for .constdata
    sin_i_x.o(.constdata) refers (Special) to usenofp.o(x$fpl$usenofp) for __I$use$fp
    tan_i.o(i.__kernel_tan) refers (Special) to usenofp.o(x$fpl$usenofp) for __I$use$fp
    tan_i.o(i.__kernel_tan) refers to dfix.o(x$fpl$dfix) for __aeabi_d2iz
    tan_i.o(i.__kernel_tan) refers to daddsub_clz.o(x$fpl$drsb) for __aeabi_drsub
    tan_i.o(i.__kernel_tan) refers to daddsub_clz.o(x$fpl$dsub) for __aeabi_dsub
    tan_i.o(i.__kernel_tan) refers to daddsub_clz.o(x$fpl$dadd) for __aeabi_dadd
    tan_i.o(i.__kernel_tan) refers to dmul.o(x$fpl$dmul) for __aeabi_dmul
    tan_i.o(i.__kernel_tan) refers to poly.o(i.__kernel_poly) for __kernel_poly
    tan_i.o(i.__kernel_tan) refers to dflt_clz.o(x$fpl$dflt) for __aeabi_i2d
    tan_i.o(i.__kernel_tan) refers to ddiv.o(x$fpl$ddiv) for __aeabi_ddiv
    tan_i.o(i.__kernel_tan) refers to scalbn.o(x$fpl$scalbn) for __ARM_scalbn
    tan_i.o(i.__kernel_tan) refers to fpclassify.o(i.__ARM_fpclassify) for __ARM_fpclassify
    tan_i.o(i.__kernel_tan) refers to dunder.o(i.__mathlib_dbl_underflow) for __mathlib_dbl_underflow
    tan_i.o(i.__kernel_tan) refers to tan_i.o(.constdata) for .constdata
    tan_i.o(.constdata) refers (Special) to usenofp.o(x$fpl$usenofp) for __I$use$fp
    tan_i_x.o(i.____kernel_tan$lsc) refers (Special) to usenofp.o(x$fpl$usenofp) for __I$use$fp
    tan_i_x.o(i.____kernel_tan$lsc) refers to dfix.o(x$fpl$dfix) for __aeabi_d2iz
    tan_i_x.o(i.____kernel_tan$lsc) refers to daddsub_clz.o(x$fpl$drsb) for __aeabi_drsub
    tan_i_x.o(i.____kernel_tan$lsc) refers to daddsub_clz.o(x$fpl$dsub) for __aeabi_dsub
    tan_i_x.o(i.____kernel_tan$lsc) refers to daddsub_clz.o(x$fpl$dadd) for __aeabi_dadd
    tan_i_x.o(i.____kernel_tan$lsc) refers to dmul.o(x$fpl$dmul) for __aeabi_dmul
    tan_i_x.o(i.____kernel_tan$lsc) refers to poly.o(i.__kernel_poly) for __kernel_poly
    tan_i_x.o(i.____kernel_tan$lsc) refers to dflt_clz.o(x$fpl$dflt) for __aeabi_i2d
    tan_i_x.o(i.____kernel_tan$lsc) refers to ddiv.o(x$fpl$ddiv) for __aeabi_ddiv
    tan_i_x.o(i.____kernel_tan$lsc) refers to scalbn.o(x$fpl$scalbn) for __ARM_scalbn
    tan_i_x.o(i.____kernel_tan$lsc) refers to tan_i_x.o(.constdata) for .constdata
    tan_i_x.o(.constdata) refers (Special) to usenofp.o(x$fpl$usenofp) for __I$use$fp
    __rtentry2.o(.ARM.Collect$$rtentry$$00000008) refers to boardinit2.o(.text) for _platform_post_stackheap_init
    __rtentry2.o(.ARM.Collect$$rtentry$$0000000A) refers to libinit.o(.ARM.Collect$$libinit$$00000000) for __rt_lib_init
    __rtentry2.o(.ARM.Collect$$rtentry$$0000000B) refers to boardinit3.o(.text) for _platform_post_lib_init
    __rtentry2.o(.ARM.Collect$$rtentry$$0000000D) refers to main.o(i.main) for main
    __rtentry2.o(.ARM.Collect$$rtentry$$0000000D) refers to exit.o(.text) for exit
    __rtentry2.o(.ARM.exidx) refers to __rtentry2.o(.ARM.Collect$$rtentry$$00000001) for .ARM.Collect$$rtentry$$00000001
    __rtentry2.o(.ARM.exidx) refers to __rtentry2.o(.ARM.Collect$$rtentry$$00000008) for .ARM.Collect$$rtentry$$00000008
    __rtentry2.o(.ARM.exidx) refers to __rtentry2.o(.ARM.Collect$$rtentry$$0000000A) for .ARM.Collect$$rtentry$$0000000A
    __rtentry2.o(.ARM.exidx) refers to __rtentry2.o(.ARM.Collect$$rtentry$$0000000B) for .ARM.Collect$$rtentry$$0000000B
    __rtentry2.o(.ARM.exidx) refers to __rtentry2.o(.ARM.Collect$$rtentry$$0000000D) for .ARM.Collect$$rtentry$$0000000D
    __rtentry4.o(.ARM.Collect$$rtentry$$00000004) refers to sys_stackheap_outer.o(.text) for __user_setup_stackheap
    __rtentry4.o(.ARM.exidx) refers to __rtentry4.o(.ARM.Collect$$rtentry$$00000004) for .ARM.Collect$$rtentry$$00000004
    rt_errno_addr.o(.text) refers to rt_errno_addr.o(.bss) for __aeabi_errno_addr_data
    rt_errno_addr_intlibspace.o(.text) refers to libspace.o(.bss) for __libspace_start
    scalbn.o(x$fpl$scalbn) refers (Special) to usenofp.o(x$fpl$usenofp) for __I$use$fp
    scalbn.o(x$fpl$scalbn) refers to dcheck1.o(x$fpl$dcheck1) for __fpl_dcheck_NaN1
    fpclassify.o(i.__ARM_fpclassify) refers (Special) to usenofp.o(x$fpl$usenofp) for __I$use$fp
    poly.o(i.__kernel_poly) refers (Special) to usenofp.o(x$fpl$usenofp) for __I$use$fp
    poly.o(i.__kernel_poly) refers to dmul.o(x$fpl$dmul) for __aeabi_dmul
    poly.o(i.__kernel_poly) refers to daddsub_clz.o(x$fpl$dadd) for __aeabi_dadd
    libspace.o(.text) refers to libspace.o(.bss) for __libspace_start
    sys_stackheap_outer.o(.text) refers to libspace.o(.text) for __user_perproc_libspace
    sys_stackheap_outer.o(.text) refers to startup_stm32f10x_md.o(.text) for __user_initial_stackheap
    exit.o(.text) refers to rtexit.o(.ARM.Collect$$rtexit$$00000000) for __rt_exit
    libinit.o(.ARM.Collect$$libinit$$00000000) refers (Special) to libinit2.o(.ARM.Collect$$libinit$$0000002E) for __rt_lib_init_alloca_1
    libinit.o(.ARM.Collect$$libinit$$00000000) refers (Special) to libinit2.o(.ARM.Collect$$libinit$$0000002C) for __rt_lib_init_argv_1
    libinit.o(.ARM.Collect$$libinit$$00000000) refers (Special) to libinit2.o(.ARM.Collect$$libinit$$0000001B) for __rt_lib_init_atexit_1
    libinit.o(.ARM.Collect$$libinit$$00000000) refers (Special) to libinit2.o(.ARM.Collect$$libinit$$00000021) for __rt_lib_init_clock_1
    libinit.o(.ARM.Collect$$libinit$$00000000) refers (Special) to libinit2.o(.ARM.Collect$$libinit$$00000032) for __rt_lib_init_cpp_1
    libinit.o(.ARM.Collect$$libinit$$00000000) refers (Special) to libinit2.o(.ARM.Collect$$libinit$$00000030) for __rt_lib_init_exceptions_1
    libinit.o(.ARM.Collect$$libinit$$00000000) refers (Special) to libinit2.o(.ARM.Collect$$libinit$$00000002) for __rt_lib_init_fp_1
    libinit.o(.ARM.Collect$$libinit$$00000000) refers (Special) to libinit2.o(.ARM.Collect$$libinit$$0000001F) for __rt_lib_init_fp_trap_1
    libinit.o(.ARM.Collect$$libinit$$00000000) refers (Special) to libinit2.o(.ARM.Collect$$libinit$$00000023) for __rt_lib_init_getenv_1
    libinit.o(.ARM.Collect$$libinit$$00000000) refers (Special) to libinit2.o(.ARM.Collect$$libinit$$0000000A) for __rt_lib_init_heap_1
    libinit.o(.ARM.Collect$$libinit$$00000000) refers (Special) to libinit2.o(.ARM.Collect$$libinit$$00000011) for __rt_lib_init_lc_collate_1
    libinit.o(.ARM.Collect$$libinit$$00000000) refers (Special) to libinit2.o(.ARM.Collect$$libinit$$00000013) for __rt_lib_init_lc_ctype_1
    libinit.o(.ARM.Collect$$libinit$$00000000) refers (Special) to libinit2.o(.ARM.Collect$$libinit$$00000015) for __rt_lib_init_lc_monetary_1
    libinit.o(.ARM.Collect$$libinit$$00000000) refers (Special) to libinit2.o(.ARM.Collect$$libinit$$00000017) for __rt_lib_init_lc_numeric_1
    libinit.o(.ARM.Collect$$libinit$$00000000) refers (Special) to libinit2.o(.ARM.Collect$$libinit$$00000019) for __rt_lib_init_lc_time_1
    libinit.o(.ARM.Collect$$libinit$$00000000) refers (Special) to libinit2.o(.ARM.Collect$$libinit$$00000004) for __rt_lib_init_preinit_1
    libinit.o(.ARM.Collect$$libinit$$00000000) refers (Special) to libinit2.o(.ARM.Collect$$libinit$$0000000E) for __rt_lib_init_rand_1
    libinit.o(.ARM.Collect$$libinit$$00000000) refers (Special) to libinit2.o(.ARM.Collect$$libinit$$00000033) for __rt_lib_init_return
    libinit.o(.ARM.Collect$$libinit$$00000000) refers (Special) to libinit2.o(.ARM.Collect$$libinit$$0000001D) for __rt_lib_init_signal_1
    libinit.o(.ARM.Collect$$libinit$$00000000) refers (Special) to libinit2.o(.ARM.Collect$$libinit$$00000025) for __rt_lib_init_stdio_1
    libinit.o(.ARM.Collect$$libinit$$00000000) refers (Special) to libinit2.o(.ARM.Collect$$libinit$$0000000C) for __rt_lib_init_user_alloc_1
    dcheck1.o(x$fpl$dcheck1) refers (Special) to usenofp.o(x$fpl$usenofp) for __I$use$fp
    dcheck1.o(x$fpl$dcheck1) refers to retnan.o(x$fpl$retnan) for __fpl_return_NaN
    rtexit.o(.ARM.Collect$$rtexit$$00000000) refers (Special) to rtexit2.o(.ARM.Collect$$rtexit$$00000004) for __rt_exit_exit
    rtexit.o(.ARM.Collect$$rtexit$$00000000) refers (Special) to rtexit2.o(.ARM.Collect$$rtexit$$00000003) for __rt_exit_ls
    rtexit.o(.ARM.Collect$$rtexit$$00000000) refers (Special) to rtexit2.o(.ARM.Collect$$rtexit$$00000002) for __rt_exit_prels_1
    rtexit.o(.ARM.exidx) refers (Special) to rtexit2.o(.ARM.Collect$$rtexit$$00000004) for __rt_exit_exit
    rtexit.o(.ARM.exidx) refers (Special) to rtexit2.o(.ARM.Collect$$rtexit$$00000003) for __rt_exit_ls
    rtexit.o(.ARM.exidx) refers (Special) to rtexit2.o(.ARM.Collect$$rtexit$$00000002) for __rt_exit_prels_1
    rtexit.o(.ARM.exidx) refers to rtexit.o(.ARM.Collect$$rtexit$$00000000) for .ARM.Collect$$rtexit$$00000000
    libinit2.o(.ARM.Collect$$libinit$$00000010) refers to libinit2.o(.ARM.Collect$$libinit$$0000000F) for .ARM.Collect$$libinit$$0000000F
    libinit2.o(.ARM.Collect$$libinit$$00000012) refers to libinit2.o(.ARM.Collect$$libinit$$0000000F) for .ARM.Collect$$libinit$$0000000F
    libinit2.o(.ARM.Collect$$libinit$$00000014) refers to libinit2.o(.ARM.Collect$$libinit$$0000000F) for .ARM.Collect$$libinit$$0000000F
    libinit2.o(.ARM.Collect$$libinit$$00000016) refers to libinit2.o(.ARM.Collect$$libinit$$0000000F) for .ARM.Collect$$libinit$$0000000F
    libinit2.o(.ARM.Collect$$libinit$$00000018) refers to libinit2.o(.ARM.Collect$$libinit$$0000000F) for .ARM.Collect$$libinit$$0000000F
    libinit2.o(.ARM.Collect$$libinit$$00000026) refers to argv_veneer.o(.emb_text) for __ARM_argv_veneer
    libinit2.o(.ARM.Collect$$libinit$$00000027) refers to argv_veneer.o(.emb_text) for __ARM_argv_veneer
    retnan.o(x$fpl$retnan) refers (Special) to usenofp.o(x$fpl$usenofp) for __I$use$fp
    retnan.o(x$fpl$retnan) refers to trapv.o(x$fpl$trapveneer) for __fpl_cmpreturn
    rtexit2.o(.ARM.Collect$$rtexit$$00000003) refers to libshutdown.o(.ARM.Collect$$libshutdown$$00000000) for __rt_lib_shutdown
    rtexit2.o(.ARM.Collect$$rtexit$$00000004) refers to sys_exit.o(.text) for _sys_exit
    rtexit2.o(.ARM.exidx) refers to rtexit2.o(.ARM.Collect$$rtexit$$00000001) for .ARM.Collect$$rtexit$$00000001
    rtexit2.o(.ARM.exidx) refers to rtexit2.o(.ARM.Collect$$rtexit$$00000003) for .ARM.Collect$$rtexit$$00000003
    rtexit2.o(.ARM.exidx) refers to rtexit2.o(.ARM.Collect$$rtexit$$00000004) for .ARM.Collect$$rtexit$$00000004
    argv_veneer.o(.emb_text) refers to no_argv.o(.text) for __ARM_get_argv
    trapv.o(x$fpl$trapveneer) refers (Special) to usenofp.o(x$fpl$usenofp) for __I$use$fp
    sys_exit.o(.text) refers (Special) to use_no_semi.o(.text) for __I$use$semihosting
    sys_exit.o(.text) refers (Special) to indicate_semi.o(.text) for __semihosting_library_function
    _get_argv_nomalloc.o(.text) refers (Special) to hrguard.o(.text) for __heap_region$guard
    _get_argv_nomalloc.o(.text) refers to defsig_rtmem_outer.o(.text) for __rt_SIGRTMEM
    _get_argv_nomalloc.o(.text) refers to sys_command.o(.text) for _sys_command_string
    libshutdown.o(.ARM.Collect$$libshutdown$$00000000) refers (Special) to libshutdown2.o(.ARM.Collect$$libshutdown$$00000002) for __rt_lib_shutdown_cpp_1
    libshutdown.o(.ARM.Collect$$libshutdown$$00000000) refers (Special) to libshutdown2.o(.ARM.Collect$$libshutdown$$00000007) for __rt_lib_shutdown_fp_trap_1
    libshutdown.o(.ARM.Collect$$libshutdown$$00000000) refers (Special) to libshutdown2.o(.ARM.Collect$$libshutdown$$0000000F) for __rt_lib_shutdown_heap_1
    libshutdown.o(.ARM.Collect$$libshutdown$$00000000) refers (Special) to libshutdown2.o(.ARM.Collect$$libshutdown$$00000010) for __rt_lib_shutdown_return
    libshutdown.o(.ARM.Collect$$libshutdown$$00000000) refers (Special) to libshutdown2.o(.ARM.Collect$$libshutdown$$0000000A) for __rt_lib_shutdown_signal_1
    libshutdown.o(.ARM.Collect$$libshutdown$$00000000) refers (Special) to libshutdown2.o(.ARM.Collect$$libshutdown$$00000004) for __rt_lib_shutdown_stdio_1
    libshutdown.o(.ARM.Collect$$libshutdown$$00000000) refers (Special) to libshutdown2.o(.ARM.Collect$$libshutdown$$0000000C) for __rt_lib_shutdown_user_alloc_1
    sys_command.o(.text) refers (Special) to use_no_semi.o(.text) for __I$use$semihosting
    sys_command.o(.text) refers (Special) to indicate_semi.o(.text) for __semihosting_library_function
    defsig_rtmem_outer.o(.text) refers to defsig_rtmem_inner.o(.text) for __rt_SIGRTMEM_inner
    defsig_rtmem_outer.o(.text) refers to defsig_exit.o(.text) for __sig_exit
    defsig_rtmem_formal.o(.text) refers to rt_raise.o(.text) for __rt_raise
    rt_raise.o(.text) refers to __raise.o(.text) for __raise
    rt_raise.o(.text) refers to sys_exit.o(.text) for _sys_exit
    defsig_exit.o(.text) refers to sys_exit.o(.text) for _sys_exit
    defsig_rtmem_inner.o(.text) refers to defsig_general.o(.text) for __default_signal_display
    __raise.o(.text) refers to defsig.o(CL$$defsig) for __default_signal_handler
    defsig_general.o(.text) refers to sys_wrch.o(.text) for _ttywrch
    sys_wrch.o(.text) refers (Special) to use_no_semi.o(.text) for __I$use$semihosting
    sys_wrch.o(.text) refers (Special) to indicate_semi.o(.text) for __semihosting_library_function
    defsig.o(CL$$defsig) refers to defsig_rtmem_inner.o(.text) for __rt_SIGRTMEM_inner
    defsig_abrt_inner.o(.text) refers to defsig_general.o(.text) for __default_signal_display
    defsig_fpe_inner.o(.text) refers to defsig_general.o(.text) for __default_signal_display
    defsig_rtred_inner.o(.text) refers to defsig_general.o(.text) for __default_signal_display
    defsig_stak_inner.o(.text) refers to defsig_general.o(.text) for __default_signal_display
    defsig_pvfn_inner.o(.text) refers to defsig_general.o(.text) for __default_signal_display
    defsig_cppl_inner.o(.text) refers to defsig_general.o(.text) for __default_signal_display
    defsig_segv_inner.o(.text) refers to defsig_general.o(.text) for __default_signal_display
    defsig_other.o(.text) refers to defsig_general.o(.text) for __default_signal_display


==============================================================================

Removing Unused input sections from the image.

    Removing core_cm3.o(.emb_text), (32 bytes).
    Removing system_stm32f10x.o(i.SystemCoreClockUpdate), (164 bytes).
    Removing system_stm32f10x.o(.data), (20 bytes).
    Removing misc.o(i.NVIC_PriorityGroupConfig), (20 bytes).
    Removing misc.o(i.NVIC_SetVectorTable), (20 bytes).
    Removing misc.o(i.NVIC_SystemLPConfig), (32 bytes).
    Removing misc.o(i.SysTick_CLKSourceConfig), (40 bytes).
    Removing stm32f10x_adc.o(i.ADC_AnalogWatchdogCmd), (20 bytes).
    Removing stm32f10x_adc.o(i.ADC_AnalogWatchdogSingleChannelConfig), (16 bytes).
    Removing stm32f10x_adc.o(i.ADC_AnalogWatchdogThresholdsConfig), (6 bytes).
    Removing stm32f10x_adc.o(i.ADC_AutoInjectedConvCmd), (22 bytes).
    Removing stm32f10x_adc.o(i.ADC_ClearFlag), (6 bytes).
    Removing stm32f10x_adc.o(i.ADC_ClearITPendingBit), (10 bytes).
    Removing stm32f10x_adc.o(i.ADC_Cmd), (22 bytes).
    Removing stm32f10x_adc.o(i.ADC_DMACmd), (22 bytes).
    Removing stm32f10x_adc.o(i.ADC_DeInit), (92 bytes).
    Removing stm32f10x_adc.o(i.ADC_DiscModeChannelCountConfig), (24 bytes).
    Removing stm32f10x_adc.o(i.ADC_DiscModeCmd), (22 bytes).
    Removing stm32f10x_adc.o(i.ADC_ExternalTrigConvCmd), (22 bytes).
    Removing stm32f10x_adc.o(i.ADC_ExternalTrigInjectedConvCmd), (22 bytes).
    Removing stm32f10x_adc.o(i.ADC_ExternalTrigInjectedConvConfig), (16 bytes).
    Removing stm32f10x_adc.o(i.ADC_GetCalibrationStatus), (20 bytes).
    Removing stm32f10x_adc.o(i.ADC_GetConversionValue), (8 bytes).
    Removing stm32f10x_adc.o(i.ADC_GetDualModeConversionValue), (12 bytes).
    Removing stm32f10x_adc.o(i.ADC_GetFlagStatus), (18 bytes).
    Removing stm32f10x_adc.o(i.ADC_GetITStatus), (36 bytes).
    Removing stm32f10x_adc.o(i.ADC_GetInjectedConversionValue), (28 bytes).
    Removing stm32f10x_adc.o(i.ADC_GetResetCalibrationStatus), (20 bytes).
    Removing stm32f10x_adc.o(i.ADC_GetSoftwareStartConvStatus), (20 bytes).
    Removing stm32f10x_adc.o(i.ADC_GetSoftwareStartInjectedConvCmdStatus), (20 bytes).
    Removing stm32f10x_adc.o(i.ADC_ITConfig), (24 bytes).
    Removing stm32f10x_adc.o(i.ADC_Init), (80 bytes).
    Removing stm32f10x_adc.o(i.ADC_InjectedChannelConfig), (130 bytes).
    Removing stm32f10x_adc.o(i.ADC_InjectedDiscModeCmd), (22 bytes).
    Removing stm32f10x_adc.o(i.ADC_InjectedSequencerLengthConfig), (24 bytes).
    Removing stm32f10x_adc.o(i.ADC_RegularChannelConfig), (184 bytes).
    Removing stm32f10x_adc.o(i.ADC_ResetCalibration), (10 bytes).
    Removing stm32f10x_adc.o(i.ADC_SetInjectedOffset), (20 bytes).
    Removing stm32f10x_adc.o(i.ADC_SoftwareStartConvCmd), (22 bytes).
    Removing stm32f10x_adc.o(i.ADC_SoftwareStartInjectedConvCmd), (22 bytes).
    Removing stm32f10x_adc.o(i.ADC_StartCalibration), (10 bytes).
    Removing stm32f10x_adc.o(i.ADC_StructInit), (18 bytes).
    Removing stm32f10x_adc.o(i.ADC_TempSensorVrefintCmd), (36 bytes).
    Removing stm32f10x_bkp.o(i.BKP_ClearFlag), (20 bytes).
    Removing stm32f10x_bkp.o(i.BKP_ClearITPendingBit), (20 bytes).
    Removing stm32f10x_bkp.o(i.BKP_DeInit), (16 bytes).
    Removing stm32f10x_bkp.o(i.BKP_GetFlagStatus), (12 bytes).
    Removing stm32f10x_bkp.o(i.BKP_GetITStatus), (12 bytes).
    Removing stm32f10x_bkp.o(i.BKP_ITConfig), (12 bytes).
    Removing stm32f10x_bkp.o(i.BKP_RTCOutputConfig), (28 bytes).
    Removing stm32f10x_bkp.o(i.BKP_ReadBackupRegister), (28 bytes).
    Removing stm32f10x_bkp.o(i.BKP_SetRTCCalibrationValue), (28 bytes).
    Removing stm32f10x_bkp.o(i.BKP_TamperPinCmd), (12 bytes).
    Removing stm32f10x_bkp.o(i.BKP_TamperPinLevelConfig), (12 bytes).
    Removing stm32f10x_bkp.o(i.BKP_WriteBackupRegister), (28 bytes).
    Removing stm32f10x_can.o(i.CAN_CancelTransmit), (48 bytes).
    Removing stm32f10x_can.o(i.CAN_ClearFlag), (56 bytes).
    Removing stm32f10x_can.o(i.CAN_ClearITPendingBit), (168 bytes).
    Removing stm32f10x_can.o(i.CAN_DBGFreeze), (22 bytes).
    Removing stm32f10x_can.o(i.CAN_DeInit), (56 bytes).
    Removing stm32f10x_can.o(i.CAN_FIFORelease), (22 bytes).
    Removing stm32f10x_can.o(i.CAN_FilterInit), (264 bytes).
    Removing stm32f10x_can.o(i.CAN_GetFlagStatus), (120 bytes).
    Removing stm32f10x_can.o(i.CAN_GetITStatus), (288 bytes).
    Removing stm32f10x_can.o(i.CAN_GetLSBTransmitErrorCounter), (12 bytes).
    Removing stm32f10x_can.o(i.CAN_GetLastErrorCode), (12 bytes).
    Removing stm32f10x_can.o(i.CAN_GetReceiveErrorCounter), (10 bytes).
    Removing stm32f10x_can.o(i.CAN_ITConfig), (18 bytes).
    Removing stm32f10x_can.o(i.CAN_Init), (276 bytes).
    Removing stm32f10x_can.o(i.CAN_MessagePending), (30 bytes).
    Removing stm32f10x_can.o(i.CAN_OperatingModeRequest), (162 bytes).
    Removing stm32f10x_can.o(i.CAN_Receive), (240 bytes).
    Removing stm32f10x_can.o(i.CAN_SlaveStartBank), (52 bytes).
    Removing stm32f10x_can.o(i.CAN_Sleep), (30 bytes).
    Removing stm32f10x_can.o(i.CAN_StructInit), (32 bytes).
    Removing stm32f10x_can.o(i.CAN_TTComModeCmd), (118 bytes).
    Removing stm32f10x_can.o(i.CAN_Transmit), (294 bytes).
    Removing stm32f10x_can.o(i.CAN_TransmitStatus), (160 bytes).
    Removing stm32f10x_can.o(i.CAN_WakeUp), (48 bytes).
    Removing stm32f10x_can.o(i.CheckITStatus), (18 bytes).
    Removing stm32f10x_cec.o(i.CEC_ClearFlag), (36 bytes).
    Removing stm32f10x_cec.o(i.CEC_ClearITPendingBit), (36 bytes).
    Removing stm32f10x_cec.o(i.CEC_Cmd), (32 bytes).
    Removing stm32f10x_cec.o(i.CEC_DeInit), (22 bytes).
    Removing stm32f10x_cec.o(i.CEC_EndOfMessageCmd), (12 bytes).
    Removing stm32f10x_cec.o(i.CEC_GetFlagStatus), (48 bytes).
    Removing stm32f10x_cec.o(i.CEC_GetITStatus), (40 bytes).
    Removing stm32f10x_cec.o(i.CEC_ITConfig), (12 bytes).
    Removing stm32f10x_cec.o(i.CEC_Init), (32 bytes).
    Removing stm32f10x_cec.o(i.CEC_OwnAddressConfig), (12 bytes).
    Removing stm32f10x_cec.o(i.CEC_ReceiveDataByte), (12 bytes).
    Removing stm32f10x_cec.o(i.CEC_SendDataByte), (12 bytes).
    Removing stm32f10x_cec.o(i.CEC_SetPrescaler), (12 bytes).
    Removing stm32f10x_cec.o(i.CEC_StartOfMessage), (12 bytes).
    Removing stm32f10x_crc.o(i.CRC_CalcBlockCRC), (36 bytes).
    Removing stm32f10x_crc.o(i.CRC_CalcCRC), (16 bytes).
    Removing stm32f10x_crc.o(i.CRC_GetCRC), (12 bytes).
    Removing stm32f10x_crc.o(i.CRC_GetIDRegister), (12 bytes).
    Removing stm32f10x_crc.o(i.CRC_ResetDR), (12 bytes).
    Removing stm32f10x_crc.o(i.CRC_SetIDRegister), (12 bytes).
    Removing stm32f10x_dac.o(i.DAC_Cmd), (40 bytes).
    Removing stm32f10x_dac.o(i.DAC_DMACmd), (44 bytes).
    Removing stm32f10x_dac.o(i.DAC_DeInit), (22 bytes).
    Removing stm32f10x_dac.o(i.DAC_DualSoftwareTriggerCmd), (36 bytes).
    Removing stm32f10x_dac.o(i.DAC_GetDataOutputValue), (36 bytes).
    Removing stm32f10x_dac.o(i.DAC_Init), (52 bytes).
    Removing stm32f10x_dac.o(i.DAC_SetChannel1Data), (32 bytes).
    Removing stm32f10x_dac.o(i.DAC_SetChannel2Data), (32 bytes).
    Removing stm32f10x_dac.o(i.DAC_SetDualChannelData), (36 bytes).
    Removing stm32f10x_dac.o(i.DAC_SoftwareTriggerCmd), (44 bytes).
    Removing stm32f10x_dac.o(i.DAC_StructInit), (12 bytes).
    Removing stm32f10x_dac.o(i.DAC_WaveGenerationCmd), (40 bytes).
    Removing stm32f10x_dbgmcu.o(i.DBGMCU_Config), (32 bytes).
    Removing stm32f10x_dbgmcu.o(i.DBGMCU_GetDEVID), (16 bytes).
    Removing stm32f10x_dbgmcu.o(i.DBGMCU_GetREVID), (12 bytes).
    Removing stm32f10x_dma.o(i.DMA_ClearFlag), (28 bytes).
    Removing stm32f10x_dma.o(i.DMA_ClearITPendingBit), (28 bytes).
    Removing stm32f10x_dma.o(i.DMA_Cmd), (24 bytes).
    Removing stm32f10x_dma.o(i.DMA_DeInit), (332 bytes).
    Removing stm32f10x_dma.o(i.DMA_GetCurrDataCounter), (8 bytes).
    Removing stm32f10x_dma.o(i.DMA_GetFlagStatus), (44 bytes).
    Removing stm32f10x_dma.o(i.DMA_GetITStatus), (44 bytes).
    Removing stm32f10x_dma.o(i.DMA_ITConfig), (18 bytes).
    Removing stm32f10x_dma.o(i.DMA_Init), (60 bytes).
    Removing stm32f10x_dma.o(i.DMA_SetCurrDataCounter), (4 bytes).
    Removing stm32f10x_dma.o(i.DMA_StructInit), (26 bytes).
    Removing stm32f10x_exti.o(i.EXTI_ClearFlag), (12 bytes).
    Removing stm32f10x_exti.o(i.EXTI_ClearITPendingBit), (12 bytes).
    Removing stm32f10x_exti.o(i.EXTI_DeInit), (36 bytes).
    Removing stm32f10x_exti.o(i.EXTI_GenerateSWInterrupt), (16 bytes).
    Removing stm32f10x_exti.o(i.EXTI_GetFlagStatus), (24 bytes).
    Removing stm32f10x_exti.o(i.EXTI_GetITStatus), (40 bytes).
    Removing stm32f10x_exti.o(i.EXTI_Init), (148 bytes).
    Removing stm32f10x_exti.o(i.EXTI_StructInit), (16 bytes).
    Removing stm32f10x_flash.o(i.FLASH_ClearFlag), (12 bytes).
    Removing stm32f10x_flash.o(i.FLASH_EnableWriteProtection), (196 bytes).
    Removing stm32f10x_flash.o(i.FLASH_EraseAllBank1Pages), (72 bytes).
    Removing stm32f10x_flash.o(i.FLASH_EraseAllPages), (72 bytes).
    Removing stm32f10x_flash.o(i.FLASH_EraseOptionBytes), (168 bytes).
    Removing stm32f10x_flash.o(i.FLASH_ErasePage), (76 bytes).
    Removing stm32f10x_flash.o(i.FLASH_GetBank1Status), (52 bytes).
    Removing stm32f10x_flash.o(i.FLASH_GetFlagStatus), (48 bytes).
    Removing stm32f10x_flash.o(i.FLASH_GetPrefetchBufferStatus), (24 bytes).
    Removing stm32f10x_flash.o(i.FLASH_GetReadOutProtectionStatus), (24 bytes).
    Removing stm32f10x_flash.o(i.FLASH_GetStatus), (52 bytes).
    Removing stm32f10x_flash.o(i.FLASH_GetUserOptionByte), (12 bytes).
    Removing stm32f10x_flash.o(i.FLASH_GetWriteProtectionOptionByte), (12 bytes).
    Removing stm32f10x_flash.o(i.FLASH_HalfCycleAccessCmd), (28 bytes).
    Removing stm32f10x_flash.o(i.FLASH_ITConfig), (32 bytes).
    Removing stm32f10x_flash.o(i.FLASH_Lock), (20 bytes).
    Removing stm32f10x_flash.o(i.FLASH_LockBank1), (20 bytes).
    Removing stm32f10x_flash.o(i.FLASH_PrefetchBufferCmd), (28 bytes).
    Removing stm32f10x_flash.o(i.FLASH_ProgramHalfWord), (64 bytes).
    Removing stm32f10x_flash.o(i.FLASH_ProgramOptionByteData), (84 bytes).
    Removing stm32f10x_flash.o(i.FLASH_ProgramWord), (108 bytes).
    Removing stm32f10x_flash.o(i.FLASH_ReadOutProtection), (172 bytes).
    Removing stm32f10x_flash.o(i.FLASH_SetLatency), (24 bytes).
    Removing stm32f10x_flash.o(i.FLASH_Unlock), (24 bytes).
    Removing stm32f10x_flash.o(i.FLASH_UnlockBank1), (24 bytes).
    Removing stm32f10x_flash.o(i.FLASH_UserOptionByteConfig), (104 bytes).
    Removing stm32f10x_flash.o(i.FLASH_WaitForLastBank1Operation), (38 bytes).
    Removing stm32f10x_flash.o(i.FLASH_WaitForLastOperation), (38 bytes).
    Removing stm32f10x_fsmc.o(i.FSMC_ClearFlag), (64 bytes).
    Removing stm32f10x_fsmc.o(i.FSMC_ClearITPendingBit), (72 bytes).
    Removing stm32f10x_fsmc.o(i.FSMC_GetECC), (28 bytes).
    Removing stm32f10x_fsmc.o(i.FSMC_GetFlagStatus), (56 bytes).
    Removing stm32f10x_fsmc.o(i.FSMC_GetITStatus), (68 bytes).
    Removing stm32f10x_fsmc.o(i.FSMC_ITConfig), (128 bytes).
    Removing stm32f10x_fsmc.o(i.FSMC_NANDCmd), (92 bytes).
    Removing stm32f10x_fsmc.o(i.FSMC_NANDDeInit), (68 bytes).
    Removing stm32f10x_fsmc.o(i.FSMC_NANDECCCmd), (92 bytes).
    Removing stm32f10x_fsmc.o(i.FSMC_NANDInit), (136 bytes).
    Removing stm32f10x_fsmc.o(i.FSMC_NANDStructInit), (54 bytes).
    Removing stm32f10x_fsmc.o(i.FSMC_NORSRAMCmd), (52 bytes).
    Removing stm32f10x_fsmc.o(i.FSMC_NORSRAMDeInit), (54 bytes).
    Removing stm32f10x_fsmc.o(i.FSMC_NORSRAMInit), (230 bytes).
    Removing stm32f10x_fsmc.o(i.FSMC_NORSRAMStructInit), (114 bytes).
    Removing stm32f10x_fsmc.o(i.FSMC_PCCARDCmd), (48 bytes).
    Removing stm32f10x_fsmc.o(i.FSMC_PCCARDDeInit), (40 bytes).
    Removing stm32f10x_fsmc.o(i.FSMC_PCCARDInit), (132 bytes).
    Removing stm32f10x_fsmc.o(i.FSMC_PCCARDStructInit), (60 bytes).
    Removing stm32f10x_gpio.o(i.GPIO_AFIODeInit), (20 bytes).
    Removing stm32f10x_gpio.o(i.GPIO_DeInit), (200 bytes).
    Removing stm32f10x_gpio.o(i.GPIO_ETH_MediaInterfaceConfig), (12 bytes).
    Removing stm32f10x_gpio.o(i.GPIO_EXTILineConfig), (64 bytes).
    Removing stm32f10x_gpio.o(i.GPIO_EventOutputCmd), (12 bytes).
    Removing stm32f10x_gpio.o(i.GPIO_EventOutputConfig), (32 bytes).
    Removing stm32f10x_gpio.o(i.GPIO_PinLockConfig), (18 bytes).
    Removing stm32f10x_gpio.o(i.GPIO_PinRemapConfig), (144 bytes).
    Removing stm32f10x_gpio.o(i.GPIO_ReadInputData), (8 bytes).
    Removing stm32f10x_gpio.o(i.GPIO_ReadInputDataBit), (18 bytes).
    Removing stm32f10x_gpio.o(i.GPIO_ReadOutputData), (8 bytes).
    Removing stm32f10x_gpio.o(i.GPIO_ReadOutputDataBit), (18 bytes).
    Removing stm32f10x_gpio.o(i.GPIO_StructInit), (16 bytes).
    Removing stm32f10x_gpio.o(i.GPIO_Write), (4 bytes).
    Removing stm32f10x_gpio.o(i.GPIO_WriteBit), (10 bytes).
    Removing stm32f10x_i2c.o(i.I2C_ARPCmd), (24 bytes).
    Removing stm32f10x_i2c.o(i.I2C_AcknowledgeConfig), (24 bytes).
    Removing stm32f10x_i2c.o(i.I2C_CalculatePEC), (24 bytes).
    Removing stm32f10x_i2c.o(i.I2C_CheckEvent), (42 bytes).
    Removing stm32f10x_i2c.o(i.I2C_ClearFlag), (12 bytes).
    Removing stm32f10x_i2c.o(i.I2C_ClearITPendingBit), (12 bytes).
    Removing stm32f10x_i2c.o(i.I2C_Cmd), (24 bytes).
    Removing stm32f10x_i2c.o(i.I2C_DMACmd), (24 bytes).
    Removing stm32f10x_i2c.o(i.I2C_DMALastTransferCmd), (24 bytes).
    Removing stm32f10x_i2c.o(i.I2C_DeInit), (56 bytes).
    Removing stm32f10x_i2c.o(i.I2C_DualAddressCmd), (24 bytes).
    Removing stm32f10x_i2c.o(i.I2C_FastModeDutyCycleConfig), (28 bytes).
    Removing stm32f10x_i2c.o(i.I2C_GeneralCallCmd), (24 bytes).
    Removing stm32f10x_i2c.o(i.I2C_GenerateSTART), (24 bytes).
    Removing stm32f10x_i2c.o(i.I2C_GenerateSTOP), (24 bytes).
    Removing stm32f10x_i2c.o(i.I2C_GetFlagStatus), (58 bytes).
    Removing stm32f10x_i2c.o(i.I2C_GetITStatus), (38 bytes).
    Removing stm32f10x_i2c.o(i.I2C_GetLastEvent), (26 bytes).
    Removing stm32f10x_i2c.o(i.I2C_GetPEC), (8 bytes).
    Removing stm32f10x_i2c.o(i.I2C_ITConfig), (18 bytes).
    Removing stm32f10x_i2c.o(i.I2C_Init), (236 bytes).
    Removing stm32f10x_i2c.o(i.I2C_NACKPositionConfig), (28 bytes).
    Removing stm32f10x_i2c.o(i.I2C_OwnAddress2Config), (22 bytes).
    Removing stm32f10x_i2c.o(i.I2C_PECPositionConfig), (28 bytes).
    Removing stm32f10x_i2c.o(i.I2C_ReadRegister), (22 bytes).
    Removing stm32f10x_i2c.o(i.I2C_ReceiveData), (8 bytes).
    Removing stm32f10x_i2c.o(i.I2C_SMBusAlertConfig), (28 bytes).
    Removing stm32f10x_i2c.o(i.I2C_Send7bitAddress), (18 bytes).
    Removing stm32f10x_i2c.o(i.I2C_SendData), (4 bytes).
    Removing stm32f10x_i2c.o(i.I2C_SoftwareResetCmd), (22 bytes).
    Removing stm32f10x_i2c.o(i.I2C_StretchClockCmd), (24 bytes).
    Removing stm32f10x_i2c.o(i.I2C_StructInit), (30 bytes).
    Removing stm32f10x_i2c.o(i.I2C_TransmitPEC), (24 bytes).
    Removing stm32f10x_iwdg.o(i.IWDG_Enable), (16 bytes).
    Removing stm32f10x_iwdg.o(i.IWDG_GetFlagStatus), (24 bytes).
    Removing stm32f10x_iwdg.o(i.IWDG_ReloadCounter), (16 bytes).
    Removing stm32f10x_iwdg.o(i.IWDG_SetPrescaler), (12 bytes).
    Removing stm32f10x_iwdg.o(i.IWDG_SetReload), (12 bytes).
    Removing stm32f10x_iwdg.o(i.IWDG_WriteAccessCmd), (12 bytes).
    Removing stm32f10x_pwr.o(i.PWR_BackupAccessCmd), (12 bytes).
    Removing stm32f10x_pwr.o(i.PWR_ClearFlag), (20 bytes).
    Removing stm32f10x_pwr.o(i.PWR_DeInit), (22 bytes).
    Removing stm32f10x_pwr.o(i.PWR_EnterSTANDBYMode), (52 bytes).
    Removing stm32f10x_pwr.o(i.PWR_EnterSTOPMode), (64 bytes).
    Removing stm32f10x_pwr.o(i.PWR_GetFlagStatus), (24 bytes).
    Removing stm32f10x_pwr.o(i.PWR_PVDCmd), (12 bytes).
    Removing stm32f10x_pwr.o(i.PWR_PVDLevelConfig), (24 bytes).
    Removing stm32f10x_pwr.o(i.PWR_WakeUpPinCmd), (12 bytes).
    Removing stm32f10x_rcc.o(i.RCC_ADCCLKConfig), (24 bytes).
    Removing stm32f10x_rcc.o(i.RCC_AHBPeriphClockCmd), (32 bytes).
    Removing stm32f10x_rcc.o(i.RCC_APB1PeriphResetCmd), (32 bytes).
    Removing stm32f10x_rcc.o(i.RCC_APB2PeriphResetCmd), (32 bytes).
    Removing stm32f10x_rcc.o(i.RCC_AdjustHSICalibrationValue), (24 bytes).
    Removing stm32f10x_rcc.o(i.RCC_BackupResetCmd), (12 bytes).
    Removing stm32f10x_rcc.o(i.RCC_ClearFlag), (20 bytes).
    Removing stm32f10x_rcc.o(i.RCC_ClearITPendingBit), (12 bytes).
    Removing stm32f10x_rcc.o(i.RCC_ClockSecuritySystemCmd), (12 bytes).
    Removing stm32f10x_rcc.o(i.RCC_DeInit), (76 bytes).
    Removing stm32f10x_rcc.o(i.RCC_GetClocksFreq), (212 bytes).
    Removing stm32f10x_rcc.o(i.RCC_GetFlagStatus), (60 bytes).
    Removing stm32f10x_rcc.o(i.RCC_GetITStatus), (24 bytes).
    Removing stm32f10x_rcc.o(i.RCC_GetSYSCLKSource), (16 bytes).
    Removing stm32f10x_rcc.o(i.RCC_HCLKConfig), (24 bytes).
    Removing stm32f10x_rcc.o(i.RCC_HSEConfig), (76 bytes).
    Removing stm32f10x_rcc.o(i.RCC_HSICmd), (12 bytes).
    Removing stm32f10x_rcc.o(i.RCC_ITConfig), (32 bytes).
    Removing stm32f10x_rcc.o(i.RCC_LSEConfig), (52 bytes).
    Removing stm32f10x_rcc.o(i.RCC_LSICmd), (12 bytes).
    Removing stm32f10x_rcc.o(i.RCC_MCOConfig), (12 bytes).
    Removing stm32f10x_rcc.o(i.RCC_PCLK1Config), (24 bytes).
    Removing stm32f10x_rcc.o(i.RCC_PCLK2Config), (24 bytes).
    Removing stm32f10x_rcc.o(i.RCC_PLLCmd), (12 bytes).
    Removing stm32f10x_rcc.o(i.RCC_PLLConfig), (28 bytes).
    Removing stm32f10x_rcc.o(i.RCC_RTCCLKCmd), (12 bytes).
    Removing stm32f10x_rcc.o(i.RCC_RTCCLKConfig), (16 bytes).
    Removing stm32f10x_rcc.o(i.RCC_SYSCLKConfig), (24 bytes).
    Removing stm32f10x_rcc.o(i.RCC_USBCLKConfig), (12 bytes).
    Removing stm32f10x_rcc.o(i.RCC_WaitForHSEStartUp), (56 bytes).
    Removing stm32f10x_rcc.o(.data), (20 bytes).
    Removing stm32f10x_rtc.o(i.RTC_ClearFlag), (16 bytes).
    Removing stm32f10x_rtc.o(i.RTC_ClearITPendingBit), (16 bytes).
    Removing stm32f10x_rtc.o(i.RTC_EnterConfigMode), (20 bytes).
    Removing stm32f10x_rtc.o(i.RTC_ExitConfigMode), (20 bytes).
    Removing stm32f10x_rtc.o(i.RTC_GetCounter), (20 bytes).
    Removing stm32f10x_rtc.o(i.RTC_GetDivider), (24 bytes).
    Removing stm32f10x_rtc.o(i.RTC_GetFlagStatus), (24 bytes).
    Removing stm32f10x_rtc.o(i.RTC_GetITStatus), (36 bytes).
    Removing stm32f10x_rtc.o(i.RTC_ITConfig), (32 bytes).
    Removing stm32f10x_rtc.o(i.RTC_SetAlarm), (28 bytes).
    Removing stm32f10x_rtc.o(i.RTC_SetCounter), (28 bytes).
    Removing stm32f10x_rtc.o(i.RTC_SetPrescaler), (32 bytes).
    Removing stm32f10x_rtc.o(i.RTC_WaitForLastTask), (20 bytes).
    Removing stm32f10x_rtc.o(i.RTC_WaitForSynchro), (36 bytes).
    Removing stm32f10x_sdio.o(i.SDIO_CEATAITCmd), (16 bytes).
    Removing stm32f10x_sdio.o(i.SDIO_ClearFlag), (12 bytes).
    Removing stm32f10x_sdio.o(i.SDIO_ClearITPendingBit), (12 bytes).
    Removing stm32f10x_sdio.o(i.SDIO_ClockCmd), (12 bytes).
    Removing stm32f10x_sdio.o(i.SDIO_CmdStructInit), (14 bytes).
    Removing stm32f10x_sdio.o(i.SDIO_CommandCompletionCmd), (12 bytes).
    Removing stm32f10x_sdio.o(i.SDIO_DMACmd), (12 bytes).
    Removing stm32f10x_sdio.o(i.SDIO_DataConfig), (48 bytes).
    Removing stm32f10x_sdio.o(i.SDIO_DataStructInit), (20 bytes).
    Removing stm32f10x_sdio.o(i.SDIO_DeInit), (36 bytes).
    Removing stm32f10x_sdio.o(i.SDIO_GetCommandResponse), (12 bytes).
    Removing stm32f10x_sdio.o(i.SDIO_GetDataCounter), (12 bytes).
    Removing stm32f10x_sdio.o(i.SDIO_GetFIFOCount), (12 bytes).
    Removing stm32f10x_sdio.o(i.SDIO_GetFlagStatus), (24 bytes).
    Removing stm32f10x_sdio.o(i.SDIO_GetITStatus), (24 bytes).
    Removing stm32f10x_sdio.o(i.SDIO_GetPowerState), (16 bytes).
    Removing stm32f10x_sdio.o(i.SDIO_GetResponse), (24 bytes).
    Removing stm32f10x_sdio.o(i.SDIO_ITConfig), (32 bytes).
    Removing stm32f10x_sdio.o(i.SDIO_Init), (48 bytes).
    Removing stm32f10x_sdio.o(i.SDIO_ReadData), (12 bytes).
    Removing stm32f10x_sdio.o(i.SDIO_SendCEATACmd), (12 bytes).
    Removing stm32f10x_sdio.o(i.SDIO_SendCommand), (44 bytes).
    Removing stm32f10x_sdio.o(i.SDIO_SendSDIOSuspendCmd), (12 bytes).
    Removing stm32f10x_sdio.o(i.SDIO_SetPowerState), (28 bytes).
    Removing stm32f10x_sdio.o(i.SDIO_SetSDIOOperation), (12 bytes).
    Removing stm32f10x_sdio.o(i.SDIO_SetSDIOReadWaitMode), (12 bytes).
    Removing stm32f10x_sdio.o(i.SDIO_StartSDIOReadWait), (12 bytes).
    Removing stm32f10x_sdio.o(i.SDIO_StopSDIOReadWait), (12 bytes).
    Removing stm32f10x_sdio.o(i.SDIO_StructInit), (16 bytes).
    Removing stm32f10x_sdio.o(i.SDIO_WriteData), (12 bytes).
    Removing stm32f10x_spi.o(i.I2S_Cmd), (24 bytes).
    Removing stm32f10x_spi.o(i.I2S_Init), (232 bytes).
    Removing stm32f10x_spi.o(i.I2S_StructInit), (20 bytes).
    Removing stm32f10x_spi.o(i.SPI_BiDirectionalLineConfig), (28 bytes).
    Removing stm32f10x_spi.o(i.SPI_CalculateCRC), (24 bytes).
    Removing stm32f10x_spi.o(i.SPI_DataSizeConfig), (18 bytes).
    Removing stm32f10x_spi.o(i.SPI_GetCRC), (16 bytes).
    Removing stm32f10x_spi.o(i.SPI_GetCRCPolynomial), (6 bytes).
    Removing stm32f10x_spi.o(i.SPI_I2S_ClearFlag), (6 bytes).
    Removing stm32f10x_spi.o(i.SPI_I2S_ClearITPendingBit), (20 bytes).
    Removing stm32f10x_spi.o(i.SPI_I2S_DMACmd), (18 bytes).
    Removing stm32f10x_spi.o(i.SPI_I2S_DeInit), (88 bytes).
    Removing stm32f10x_spi.o(i.SPI_I2S_GetITStatus), (52 bytes).
    Removing stm32f10x_spi.o(i.SPI_I2S_ITConfig), (32 bytes).
    Removing stm32f10x_spi.o(i.SPI_I2S_ReceiveData), (6 bytes).
    Removing stm32f10x_spi.o(i.SPI_NSSInternalSoftwareConfig), (30 bytes).
    Removing stm32f10x_spi.o(i.SPI_SSOutputCmd), (24 bytes).
    Removing stm32f10x_spi.o(i.SPI_StructInit), (24 bytes).
    Removing stm32f10x_spi.o(i.SPI_TransmitCRC), (10 bytes).
    Removing stm32f10x_tim.o(i.TI1_Config), (128 bytes).
    Removing stm32f10x_tim.o(i.TI2_Config), (152 bytes).
    Removing stm32f10x_tim.o(i.TI3_Config), (144 bytes).
    Removing stm32f10x_tim.o(i.TI4_Config), (152 bytes).
    Removing stm32f10x_tim.o(i.TIM_ARRPreloadConfig), (24 bytes).
    Removing stm32f10x_tim.o(i.TIM_BDTRConfig), (32 bytes).
    Removing stm32f10x_tim.o(i.TIM_BDTRStructInit), (18 bytes).
    Removing stm32f10x_tim.o(i.TIM_CCPreloadControl), (24 bytes).
    Removing stm32f10x_tim.o(i.TIM_CCxCmd), (30 bytes).
    Removing stm32f10x_tim.o(i.TIM_CCxNCmd), (30 bytes).
    Removing stm32f10x_tim.o(i.TIM_ClearFlag), (6 bytes).
    Removing stm32f10x_tim.o(i.TIM_ClearOC1Ref), (18 bytes).
    Removing stm32f10x_tim.o(i.TIM_ClearOC2Ref), (24 bytes).
    Removing stm32f10x_tim.o(i.TIM_ClearOC3Ref), (18 bytes).
    Removing stm32f10x_tim.o(i.TIM_ClearOC4Ref), (24 bytes).
    Removing stm32f10x_tim.o(i.TIM_CounterModeConfig), (18 bytes).
    Removing stm32f10x_tim.o(i.TIM_CtrlPWMOutputs), (30 bytes).
    Removing stm32f10x_tim.o(i.TIM_DMACmd), (18 bytes).
    Removing stm32f10x_tim.o(i.TIM_DMAConfig), (10 bytes).
    Removing stm32f10x_tim.o(i.TIM_DeInit), (488 bytes).
    Removing stm32f10x_tim.o(i.TIM_ETRClockMode1Config), (54 bytes).
    Removing stm32f10x_tim.o(i.TIM_ETRClockMode2Config), (32 bytes).
    Removing stm32f10x_tim.o(i.TIM_ETRConfig), (28 bytes).
    Removing stm32f10x_tim.o(i.TIM_EncoderInterfaceConfig), (66 bytes).
    Removing stm32f10x_tim.o(i.TIM_ForcedOC1Config), (18 bytes).
    Removing stm32f10x_tim.o(i.TIM_ForcedOC2Config), (26 bytes).
    Removing stm32f10x_tim.o(i.TIM_ForcedOC3Config), (18 bytes).
    Removing stm32f10x_tim.o(i.TIM_ForcedOC4Config), (26 bytes).
    Removing stm32f10x_tim.o(i.TIM_GenerateEvent), (4 bytes).
    Removing stm32f10x_tim.o(i.TIM_GetCapture1), (6 bytes).
    Removing stm32f10x_tim.o(i.TIM_GetCapture2), (6 bytes).
    Removing stm32f10x_tim.o(i.TIM_GetCapture3), (6 bytes).
    Removing stm32f10x_tim.o(i.TIM_GetCapture4), (8 bytes).
    Removing stm32f10x_tim.o(i.TIM_GetFlagStatus), (18 bytes).
    Removing stm32f10x_tim.o(i.TIM_GetPrescaler), (6 bytes).
    Removing stm32f10x_tim.o(i.TIM_ICInit), (172 bytes).
    Removing stm32f10x_tim.o(i.TIM_ICStructInit), (18 bytes).
    Removing stm32f10x_tim.o(i.TIM_ITRxExternalClockConfig), (24 bytes).
    Removing stm32f10x_tim.o(i.TIM_InternalClockConfig), (12 bytes).
    Removing stm32f10x_tim.o(i.TIM_OC1FastConfig), (18 bytes).
    Removing stm32f10x_tim.o(i.TIM_OC1Init), (152 bytes).
    Removing stm32f10x_tim.o(i.TIM_OC1NPolarityConfig), (18 bytes).
    Removing stm32f10x_tim.o(i.TIM_OC1PolarityConfig), (18 bytes).
    Removing stm32f10x_tim.o(i.TIM_OC1PreloadConfig), (18 bytes).
    Removing stm32f10x_tim.o(i.TIM_OC2FastConfig), (26 bytes).
    Removing stm32f10x_tim.o(i.TIM_OC2Init), (164 bytes).
    Removing stm32f10x_tim.o(i.TIM_OC2NPolarityConfig), (26 bytes).
    Removing stm32f10x_tim.o(i.TIM_OC2PolarityConfig), (26 bytes).
    Removing stm32f10x_tim.o(i.TIM_OC2PreloadConfig), (26 bytes).
    Removing stm32f10x_tim.o(i.TIM_OC3FastConfig), (18 bytes).
    Removing stm32f10x_tim.o(i.TIM_OC3Init), (160 bytes).
    Removing stm32f10x_tim.o(i.TIM_OC3NPolarityConfig), (26 bytes).
    Removing stm32f10x_tim.o(i.TIM_OC3PolarityConfig), (26 bytes).
    Removing stm32f10x_tim.o(i.TIM_OC3PreloadConfig), (18 bytes).
    Removing stm32f10x_tim.o(i.TIM_OC4FastConfig), (26 bytes).
    Removing stm32f10x_tim.o(i.TIM_OC4Init), (124 bytes).
    Removing stm32f10x_tim.o(i.TIM_OC4PolarityConfig), (26 bytes).
    Removing stm32f10x_tim.o(i.TIM_OC4PreloadConfig), (26 bytes).
    Removing stm32f10x_tim.o(i.TIM_OCStructInit), (20 bytes).
    Removing stm32f10x_tim.o(i.TIM_PWMIConfig), (124 bytes).
    Removing stm32f10x_tim.o(i.TIM_PrescalerConfig), (6 bytes).
    Removing stm32f10x_tim.o(i.TIM_SelectCCDMA), (24 bytes).
    Removing stm32f10x_tim.o(i.TIM_SelectCOM), (24 bytes).
    Removing stm32f10x_tim.o(i.TIM_SelectHallSensor), (24 bytes).
    Removing stm32f10x_tim.o(i.TIM_SelectInputTrigger), (18 bytes).
    Removing stm32f10x_tim.o(i.TIM_SelectMasterSlaveMode), (18 bytes).
    Removing stm32f10x_tim.o(i.TIM_SelectOCxM), (82 bytes).
    Removing stm32f10x_tim.o(i.TIM_SelectOnePulseMode), (18 bytes).
    Removing stm32f10x_tim.o(i.TIM_SelectOutputTrigger), (18 bytes).
    Removing stm32f10x_tim.o(i.TIM_SelectSlaveMode), (18 bytes).
    Removing stm32f10x_tim.o(i.TIM_SetAutoreload), (4 bytes).
    Removing stm32f10x_tim.o(i.TIM_SetClockDivision), (18 bytes).
    Removing stm32f10x_tim.o(i.TIM_SetCompare1), (4 bytes).
    Removing stm32f10x_tim.o(i.TIM_SetCompare2), (4 bytes).
    Removing stm32f10x_tim.o(i.TIM_SetCompare3), (4 bytes).
    Removing stm32f10x_tim.o(i.TIM_SetCompare4), (6 bytes).
    Removing stm32f10x_tim.o(i.TIM_SetIC1Prescaler), (18 bytes).
    Removing stm32f10x_tim.o(i.TIM_SetIC2Prescaler), (26 bytes).
    Removing stm32f10x_tim.o(i.TIM_SetIC3Prescaler), (18 bytes).
    Removing stm32f10x_tim.o(i.TIM_SetIC4Prescaler), (26 bytes).
    Removing stm32f10x_tim.o(i.TIM_TIxExternalClockConfig), (62 bytes).
    Removing stm32f10x_tim.o(i.TIM_TimeBaseStructInit), (18 bytes).
    Removing stm32f10x_tim.o(i.TIM_UpdateDisableConfig), (24 bytes).
    Removing stm32f10x_tim.o(i.TIM_UpdateRequestConfig), (24 bytes).
    Removing stm32f10x_usart.o(i.USART_ClearFlag), (18 bytes).
    Removing stm32f10x_usart.o(i.USART_ClearITPendingBit), (30 bytes).
    Removing stm32f10x_usart.o(i.USART_ClockInit), (34 bytes).
    Removing stm32f10x_usart.o(i.USART_ClockStructInit), (12 bytes).
    Removing stm32f10x_usart.o(i.USART_Cmd), (24 bytes).
    Removing stm32f10x_usart.o(i.USART_DMACmd), (18 bytes).
    Removing stm32f10x_usart.o(i.USART_DeInit), (156 bytes).
    Removing stm32f10x_usart.o(i.USART_GetFlagStatus), (26 bytes).
    Removing stm32f10x_usart.o(i.USART_GetITStatus), (84 bytes).
    Removing stm32f10x_usart.o(i.USART_HalfDuplexCmd), (24 bytes).
    Removing stm32f10x_usart.o(i.USART_ITConfig), (74 bytes).
    Removing stm32f10x_usart.o(i.USART_Init), (216 bytes).
    Removing stm32f10x_usart.o(i.USART_IrDACmd), (24 bytes).
    Removing stm32f10x_usart.o(i.USART_IrDAConfig), (18 bytes).
    Removing stm32f10x_usart.o(i.USART_LINBreakDetectLengthConfig), (18 bytes).
    Removing stm32f10x_usart.o(i.USART_LINCmd), (24 bytes).
    Removing stm32f10x_usart.o(i.USART_OneBitMethodCmd), (24 bytes).
    Removing stm32f10x_usart.o(i.USART_OverSampling8Cmd), (22 bytes).
    Removing stm32f10x_usart.o(i.USART_ReceiveData), (10 bytes).
    Removing stm32f10x_usart.o(i.USART_ReceiverWakeUpCmd), (24 bytes).
    Removing stm32f10x_usart.o(i.USART_SendBreak), (10 bytes).
    Removing stm32f10x_usart.o(i.USART_SendData), (8 bytes).
    Removing stm32f10x_usart.o(i.USART_SetAddress), (18 bytes).
    Removing stm32f10x_usart.o(i.USART_SetGuardTime), (16 bytes).
    Removing stm32f10x_usart.o(i.USART_SetPrescaler), (16 bytes).
    Removing stm32f10x_usart.o(i.USART_SmartCardCmd), (24 bytes).
    Removing stm32f10x_usart.o(i.USART_SmartCardNACKCmd), (24 bytes).
    Removing stm32f10x_usart.o(i.USART_StructInit), (24 bytes).
    Removing stm32f10x_usart.o(i.USART_WakeUpConfig), (18 bytes).
    Removing stm32f10x_wwdg.o(i.WWDG_ClearFlag), (12 bytes).
    Removing stm32f10x_wwdg.o(i.WWDG_DeInit), (22 bytes).
    Removing stm32f10x_wwdg.o(i.WWDG_Enable), (16 bytes).
    Removing stm32f10x_wwdg.o(i.WWDG_EnableIT), (12 bytes).
    Removing stm32f10x_wwdg.o(i.WWDG_GetFlagStatus), (12 bytes).
    Removing stm32f10x_wwdg.o(i.WWDG_SetCounter), (16 bytes).
    Removing stm32f10x_wwdg.o(i.WWDG_SetPrescaler), (24 bytes).
    Removing stm32f10x_wwdg.o(i.WWDG_SetWindowValue), (40 bytes).
    Removing five_way_key.o(i.FiveKey_Num), (268 bytes).
    Removing five_way_key.o(i.FiveWayKey_Init), (44 bytes).
    Removing five_way_key.o(.data), (1 bytes).
    Removing main.o(i.func3), (52 bytes).
    Removing main.o(i.map_print_dn), (112 bytes).
    Removing bit_operate.o(i.Bit_Modify), (98 bytes).
    Removing bit_operate.o(i.Bit_Read), (82 bytes).
    Removing bit_operate.o(i.Bit_Read_Within_Byte), (36 bytes).
    Removing camera.o(i.Camera_BackMove), (236 bytes).
    Removing camera.o(i.Camera_ForwardMove), (236 bytes).
    Removing camera.o(i.Camera_LeftMove), (236 bytes).
    Removing camera.o(i.Camera_LeftPan), (312 bytes).
    Removing camera.o(i.Camera_LeftTilt), (2 bytes).
    Removing camera.o(i.Camera_RightMove), (236 bytes).
    Removing camera.o(i.Camera_RightPan), (372 bytes).
    Removing camera.o(i.Camera_RightTilt), (2 bytes).
    Removing camera.o(i.Ceil_TextureRender), (644 bytes).
    Removing camera.o(i.Celi_CustomRenderCreate), (78 bytes).
    Removing camera.o(i.Celi_GetTexture), (36 bytes).
    Removing camera.o(i.Celi_SwitchCustomReaderMode), (32 bytes).
    Removing camera.o(i.Celi_SwitchDefaultReaderMode), (20 bytes).
    Removing camera.o(i.Celi_TextureAdd), (128 bytes).
    Removing camera.o(i.Floor_CustomRenderCreate), (78 bytes).
    Removing camera.o(i.Floor_GetTexture), (36 bytes).
    Removing camera.o(i.Floor_SwitchCustomReaderMode), (32 bytes).
    Removing camera.o(i.Floor_SwitchDefaultReaderMode), (20 bytes).
    Removing camera.o(i.Floor_TextureAdd), (128 bytes).
    Removing camera.o(i.Floor_TextureRender), (640 bytes).
    Removing camera.o(i.SSRAnim_RenderDisable), (20 bytes).
    Removing canvas.o(i.Canvas_Base), (52 bytes).
    Removing canvas.o(i.Canvas_Free), (44 bytes).
    Removing canvas.o(i.Canvas_Refresh), (28 bytes).
    Removing rb_tree.o(i.RB_Tree_Free), (32 bytes).
    Removing texturemapper.o(i.Texture_ArrayModify), (44 bytes).
    Removing texturemapper.o(i.Texture_COLModify), (36 bytes).
    Removing texturemapper.o(i.Texture_Delete), (28 bytes).
    Removing texturemapper.o(i.Texture_Free), (16 bytes).
    Removing texturemapper.o(i.Texture_GetArray), (32 bytes).
    Removing texturemapper.o(i.Texture_GetColumn), (32 bytes).
    Removing texturemapper.o(i.Texture_GetROW), (32 bytes).
    Removing texturemapper.o(i.Texture_GetTextureType), (32 bytes).
    Removing texturemapper.o(i.Texture_ROWModify), (56 bytes).
    Removing texturemapper.o(i.Texture_TypeModify), (36 bytes).
    Removing texturemapper.o(i.Texture_ValueModify), (96 bytes).
    Removing vector.o(i.vector_Add), (70 bytes).
    Removing vector.o(i.vector_Dot), (60 bytes).
    Removing vector.o(i.vector_Negate), (40 bytes).
    Removing vector.o(i.vector_Scalar_Mul), (66 bytes).
    Removing vector.o(i.vector_Sub), (70 bytes).
    Removing worldmap.o(i.WorldMap_ArrayModify), (36 bytes).
    Removing worldmap.o(i.WorldMap_COLModify), (36 bytes).
    Removing worldmap.o(i.WorldMap_Delete), (28 bytes).
    Removing worldmap.o(i.WorldMap_Free), (16 bytes).
    Removing worldmap.o(i.WorldMap_GetArray), (32 bytes).
    Removing worldmap.o(i.WorldMap_GetColumn), (32 bytes).
    Removing worldmap.o(i.WorldMap_GetROW), (32 bytes).
    Removing worldmap.o(i.WorldMap_ROWModify), (36 bytes).
    Removing worldmap.o(i.WorldMap_SetCurrentMapPos), (12 bytes).
    Removing worldmap.o(i.WorldMap_ValueModify), (88 bytes).
    Removing enginefault.o(i.EngineFault_InadequateResources_Handle), (4 bytes).
    Removing stack.o(i.Stack_Pop), (42 bytes).
    Removing stack.o(i.Stack_Push), (40 bytes).
    Removing stack.o(i.Stack_Size), (6 bytes).
    Removing frameratestrategy.o(i.FrmRS_deltaTime_Free), (56 bytes).
    Removing frameratestrategy.o(i.FrmRS_deltaTime_Get), (28 bytes).
    Removing sprites_animation.o(i.SpritesAnim_DelManager), (8 bytes).
    Removing sprites_animation.o(i.SpritesAnim_GetAnimType), (20 bytes).
    Removing sprites_animation.o(i.SpritesAnim_GetChainIndex), (16 bytes).
    Removing sprites_animation.o(i.SpritesAnim_GetFrmCountOfChain), (44 bytes).
    Removing sprites_animation.o(i.SpritesAnim_GetManagerIndex), (14 bytes).
    Removing sprites_animation.o(i.SpritesAnim_IsEndFrm), (54 bytes).
    Removing sprites_animation.o(i.SpritesAnim_SetDefaultChain), (40 bytes).
    Removing sprites_animation.o(i.SpritesAnim_SwitchDefaultChain), (24 bytes).
    Removing sprites_animation.o(i.SpritesAnim_SwitchFirstFrm), (46 bytes).
    Removing sprites_logical.o(i.BresenhamLine_WallDetect), (190 bytes).
    Removing sprites_logical.o(i.CalculateStepDistance), (436 bytes).
    Removing sprites_logical.o(i.SpritesData_GetVerticalHeight), (14 bytes).
    Removing sprites_logical.o(i.SpritesData_SetVerticalHeight), (16 bytes).
    Removing sprites_logical.o(i.SpritesData_VerticalHeight_MoveDown), (24 bytes).
    Removing sprites_logical.o(i.SpritesData_VerticalHeight_MoveUp), (24 bytes).
    Removing sprites_logical.o(i.SpritesMov_Backward), (240 bytes).
    Removing sprites_logical.o(i.SpritesMov_GetDir), (24 bytes).
    Removing sprites_logical.o(i.SpritesMov_SetDirToCamera), (172 bytes).
    Removing sprites_logical.o(i.SpritesPriv_Replace), (30 bytes).
    Removing sprites_logical.o(i.SpritesPriv_Reset), (30 bytes).
    Removing sprites_logical.o(i.SpritesStatic_ObjectCreate), (180 bytes).
    Removing sprites_logical.o(i.SpritesTree_StaticAdd), (76 bytes).
    Removing sprites_behaviortree.o(i.SpritesBT_Action_ModITType), (68 bytes).
    Removing sprites_behaviortree.o(i.SpritesBT_Action_ModPriority), (50 bytes).
    Removing sprites_behaviortree.o(i.SpritesBT_Action_ToPhased), (72 bytes).
    Removing sprites_behaviortree.o(i.SpritesBT_Action_ToSteady), (38 bytes).
    Removing sprites_behaviortree.o(i.SpritesBT_Condition), (34 bytes).
    Removing sprites_behaviortree.o(i.SpritesBT_InsertBehavior), (262 bytes).
    Removing sprites_behaviortree.o(i.SpritesBT_SelectorCreate), (22 bytes).
    Removing sprites_behaviortree.o(i.SpritesBT_Sequence), (22 bytes).
    Removing sprites_behaviortree.o(i.SpritesIT_Disable), (24 bytes).
    Removing sprites_behaviortree.o(i.SpritesIT_Trigger), (26 bytes).
    Removing sprites_behaviortree.o(i.SpritesIT_TriggerClear), (26 bytes).
    Removing sprites_behaviortree.o(i.Sprites_BT_ECNodeCreate), (58 bytes).
    Removing mistink.o(i.Bit_loading), (36 bytes).
    Removing mistink.o(i.M_PictureLoad), (210 bytes).
    Removing mistink.o(i.MistinkPixel_RegisterOP), (36 bytes).
    Removing mistink.o(i.Picture_Coordinate), (80 bytes).
    Removing mistink_displayer.o(i.MistinkDisplayer_Clear), (10 bytes).
    Removing mistink_displayer.o(i.MistinkDisplayer_Free), (12 bytes).

564 unused section(s) (total 27039 bytes) removed from the image.

==============================================================================

Image Symbol Table

    Local Symbols

    Symbol Name                              Value     Ov Type        Size  Object(Section)

    ../clib/angel/boardlib.s                 0x00000000   Number         0  boardinit3.o ABSOLUTE
    ../clib/angel/boardlib.s                 0x00000000   Number         0  boardinit1.o ABSOLUTE
    ../clib/angel/boardlib.s                 0x00000000   Number         0  boardinit2.o ABSOLUTE
    ../clib/angel/boardlib.s                 0x00000000   Number         0  boardshut.o ABSOLUTE
    ../clib/angel/dczerorl2.s                0x00000000   Number         0  __dczerorl2.o ABSOLUTE
    ../clib/angel/handlers.s                 0x00000000   Number         0  __scatter_zi.o ABSOLUTE
    ../clib/angel/kernel.s                   0x00000000   Number         0  rtexit.o ABSOLUTE
    ../clib/angel/kernel.s                   0x00000000   Number         0  __rtentry4.o ABSOLUTE
    ../clib/angel/kernel.s                   0x00000000   Number         0  __rtentry2.o ABSOLUTE
    ../clib/angel/kernel.s                   0x00000000   Number         0  __rtentry.o ABSOLUTE
    ../clib/angel/kernel.s                   0x00000000   Number         0  rtexit2.o ABSOLUTE
    ../clib/angel/rt.s                       0x00000000   Number         0  rt_errno_addr.o ABSOLUTE
    ../clib/angel/rt.s                       0x00000000   Number         0  rt_raise.o ABSOLUTE
    ../clib/angel/rt.s                       0x00000000   Number         0  rt_errno_addr_intlibspace.o ABSOLUTE
    ../clib/angel/scatter.s                  0x00000000   Number         0  __scatter.o ABSOLUTE
    ../clib/angel/startup.s                  0x00000000   Number         0  __main.o ABSOLUTE
    ../clib/angel/sys.s                      0x00000000   Number         0  sys_stackheap_outer.o ABSOLUTE
    ../clib/angel/sys.s                      0x00000000   Number         0  libspace.o ABSOLUTE
    ../clib/angel/sys.s                      0x00000000   Number         0  use_no_semi.o ABSOLUTE
    ../clib/angel/sys.s                      0x00000000   Number         0  indicate_semi.o ABSOLUTE
    ../clib/angel/sysapp.c                   0x00000000   Number         0  sys_command.o ABSOLUTE
    ../clib/angel/sysapp.c                   0x00000000   Number         0  sys_wrch.o ABSOLUTE
    ../clib/angel/sysapp.c                   0x00000000   Number         0  sys_exit.o ABSOLUTE
    ../clib/armsys.c                         0x00000000   Number         0  no_argv.o ABSOLUTE
    ../clib/armsys.c                         0x00000000   Number         0  _get_argv_nomalloc.o ABSOLUTE
    ../clib/armsys.c                         0x00000000   Number         0  argv_veneer.o ABSOLUTE
    ../clib/armsys.c                         0x00000000   Number         0  argv_veneer.o ABSOLUTE
    ../clib/fenv.c                           0x00000000   Number         0  _rserrno.o ABSOLUTE
    ../clib/heapalloc.c                      0x00000000   Number         0  hrguard.o ABSOLUTE
    ../clib/heapaux.c                        0x00000000   Number         0  heapauxi.o ABSOLUTE
    ../clib/libinit.s                        0x00000000   Number         0  libshutdown.o ABSOLUTE
    ../clib/libinit.s                        0x00000000   Number         0  libinit.o ABSOLUTE
    ../clib/libinit.s                        0x00000000   Number         0  libshutdown2.o ABSOLUTE
    ../clib/libinit.s                        0x00000000   Number         0  libinit2.o ABSOLUTE
    ../clib/printf.c                         0x00000000   Number         0  __printf_flags.o ABSOLUTE
    ../clib/printf.c                         0x00000000   Number         0  __printf_ss.o ABSOLUTE
    ../clib/printf.c                         0x00000000   Number         0  __printf_flags_ss.o ABSOLUTE
    ../clib/printf.c                         0x00000000   Number         0  __printf_wp.o ABSOLUTE
    ../clib/printf.c                         0x00000000   Number         0  __printf_ss_wp.o ABSOLUTE
    ../clib/printf.c                         0x00000000   Number         0  __printf_flags_ss_wp.o ABSOLUTE
    ../clib/printf.c                         0x00000000   Number         0  _printf_char_common.o ABSOLUTE
    ../clib/printf.c                         0x00000000   Number         0  _sputc.o ABSOLUTE
    ../clib/printf.c                         0x00000000   Number         0  __printf_nopercent.o ABSOLUTE
    ../clib/printf.c                         0x00000000   Number         0  __printf_flags_wp.o ABSOLUTE
    ../clib/printf.c                         0x00000000   Number         0  _printf_intcommon.o ABSOLUTE
    ../clib/printf.c                         0x00000000   Number         0  __2sprintf.o ABSOLUTE
    ../clib/printf.c                         0x00000000   Number         0  noretval__2sprintf.o ABSOLUTE
    ../clib/printf.c                         0x00000000   Number         0  __printf.o ABSOLUTE
    ../clib/printf.c                         0x00000000   Number         0  _printf_dec.o ABSOLUTE
    ../clib/printf_percent.s                 0x00000000   Number         0  _printf_percent_end.o ABSOLUTE
    ../clib/printf_percent.s                 0x00000000   Number         0  _printf_percent.o ABSOLUTE
    ../clib/printf_percent.s                 0x00000000   Number         0  _printf_d.o ABSOLUTE
    ../clib/signal.c                         0x00000000   Number         0  __raise.o ABSOLUTE
    ../clib/signal.c                         0x00000000   Number         0  defsig_general.o ABSOLUTE
    ../clib/signal.c                         0x00000000   Number         0  defsig_stak_inner.o ABSOLUTE
    ../clib/signal.c                         0x00000000   Number         0  defsig_abrt_inner.o ABSOLUTE
    ../clib/signal.c                         0x00000000   Number         0  defsig_rtmem_inner.o ABSOLUTE
    ../clib/signal.c                         0x00000000   Number         0  defsig_exit.o ABSOLUTE
    ../clib/signal.c                         0x00000000   Number         0  defsig_rtred_inner.o ABSOLUTE
    ../clib/signal.c                         0x00000000   Number         0  defsig_rtmem_formal.o ABSOLUTE
    ../clib/signal.c                         0x00000000   Number         0  defsig_fpe_inner.o ABSOLUTE
    ../clib/signal.c                         0x00000000   Number         0  defsig_pvfn_inner.o ABSOLUTE
    ../clib/signal.c                         0x00000000   Number         0  defsig_cppl_inner.o ABSOLUTE
    ../clib/signal.c                         0x00000000   Number         0  defsig_segv_inner.o ABSOLUTE
    ../clib/signal.c                         0x00000000   Number         0  defsig_other.o ABSOLUTE
    ../clib/signal.c                         0x00000000   Number         0  defsig_rtmem_outer.o ABSOLUTE
    ../clib/signal.s                         0x00000000   Number         0  defsig.o ABSOLUTE
    ../clib/stdlib.c                         0x00000000   Number         0  exit.o ABSOLUTE
    ../clib/string.c                         0x00000000   Number         0  strlen.o ABSOLUTE
    ../fplib/d2f.s                           0x00000000   Number         0  d2f.o ABSOLUTE
    ../fplib/daddsub.s                       0x00000000   Number         0  daddsub_clz.o ABSOLUTE
    ../fplib/dcheck1.s                       0x00000000   Number         0  dcheck1.o ABSOLUTE
    ../fplib/dcmpi.s                         0x00000000   Number         0  dcmpi.o ABSOLUTE
    ../fplib/ddiv.s                          0x00000000   Number         0  ddiv.o ABSOLUTE
    ../fplib/deqf.s                          0x00000000   Number         0  deqf.o ABSOLUTE
    ../fplib/dfix.s                          0x00000000   Number         0  dfix.o ABSOLUTE
    ../fplib/dflt.s                          0x00000000   Number         0  dflt_clz.o ABSOLUTE
    ../fplib/dleqf.s                         0x00000000   Number         0  dleqf.o ABSOLUTE
    ../fplib/dmul.s                          0x00000000   Number         0  dmul.o ABSOLUTE
    ../fplib/dnaninf.s                       0x00000000   Number         0  dnaninf.o ABSOLUTE
    ../fplib/dretinf.s                       0x00000000   Number         0  dretinf.o ABSOLUTE
    ../fplib/drleqf.s                        0x00000000   Number         0  drleqf.o ABSOLUTE
    ../fplib/dsqrt.s                         0x00000000   Number         0  dsqrt_noumaal.o ABSOLUTE
    ../fplib/faddsub.s                       0x00000000   Number         0  faddsub_clz.o ABSOLUTE
    ../fplib/fcmpi.s                         0x00000000   Number         0  fcmpi.o ABSOLUTE
    ../fplib/fdiv.s                          0x00000000   Number         0  fdiv.o ABSOLUTE
    ../fplib/fflt.s                          0x00000000   Number         0  fflt_clz.o ABSOLUTE
    ../fplib/fleqf.s                         0x00000000   Number         0  fleqf.o ABSOLUTE
    ../fplib/fnaninf.s                       0x00000000   Number         0  fnaninf.o ABSOLUTE
    ../fplib/fpinit.s                        0x00000000   Number         0  fpinit.o ABSOLUTE
    ../fplib/fretinf.s                       0x00000000   Number         0  fretinf.o ABSOLUTE
    ../fplib/frleqf.s                        0x00000000   Number         0  frleqf.o ABSOLUTE
    ../fplib/retnan.s                        0x00000000   Number         0  retnan.o ABSOLUTE
    ../fplib/scalbn.s                        0x00000000   Number         0  scalbn.o ABSOLUTE
    ../fplib/trapv.s                         0x00000000   Number         0  trapv.o ABSOLUTE
    ../fplib/usenofp.s                       0x00000000   Number         0  usenofp.o ABSOLUTE
    ../mathlib/cos.c                         0x00000000   Number         0  cos_x.o ABSOLUTE
    ../mathlib/cos.c                         0x00000000   Number         0  cos.o ABSOLUTE
    ../mathlib/cos_i.c                       0x00000000   Number         0  cos_i.o ABSOLUTE
    ../mathlib/dunder.c                      0x00000000   Number         0  dunder.o ABSOLUTE
    ../mathlib/fpclassify.c                  0x00000000   Number         0  fpclassify.o ABSOLUTE
    ../mathlib/poly.c                        0x00000000   Number         0  poly.o ABSOLUTE
    ../mathlib/rred.c                        0x00000000   Number         0  rred.o ABSOLUTE
    ../mathlib/sin.c                         0x00000000   Number         0  sin_x.o ABSOLUTE
    ../mathlib/sin.c                         0x00000000   Number         0  sin.o ABSOLUTE
    ../mathlib/sin_i.c                       0x00000000   Number         0  sin_i.o ABSOLUTE
    ../mathlib/sin_i.c                       0x00000000   Number         0  sin_i_x.o ABSOLUTE
    ../mathlib/sqrt.c                        0x00000000   Number         0  sqrt.o ABSOLUTE
    ../mathlib/sqrt.c                        0x00000000   Number         0  sqrt_x.o ABSOLUTE
    ../mathlib/tan.c                         0x00000000   Number         0  tan.o ABSOLUTE
    ../mathlib/tan.c                         0x00000000   Number         0  tan_x.o ABSOLUTE
    ../mathlib/tan_i.c                       0x00000000   Number         0  tan_i.o ABSOLUTE
    ../mathlib/tan_i.c                       0x00000000   Number         0  tan_i_x.o ABSOLUTE
    CeruleanBird\source\Camera.c             0x00000000   Number         0  camera.o ABSOLUTE
    CeruleanBird\source\Canvas.c             0x00000000   Number         0  canvas.o ABSOLUTE
    CeruleanBird\source\CeruleanBird.c       0x00000000   Number         0  ceruleanbird.o ABSOLUTE
    CeruleanBird\source\EngineFault.c        0x00000000   Number         0  enginefault.o ABSOLUTE
    CeruleanBird\source\FrameRateStrategy.c  0x00000000   Number         0  frameratestrategy.o ABSOLUTE
    CeruleanBird\source\RB_Tree.c            0x00000000   Number         0  rb_tree.o ABSOLUTE
    CeruleanBird\source\Sprites_Animation.c  0x00000000   Number         0  sprites_animation.o ABSOLUTE
    CeruleanBird\source\Sprites_BehaviorTree.c 0x00000000   Number         0  sprites_behaviortree.o ABSOLUTE
    CeruleanBird\source\Sprites_Logical.c    0x00000000   Number         0  sprites_logical.o ABSOLUTE
    CeruleanBird\source\Stack.c              0x00000000   Number         0  stack.o ABSOLUTE
    CeruleanBird\source\TextureMapper.c      0x00000000   Number         0  texturemapper.o ABSOLUTE
    CeruleanBird\source\WorldMap.c           0x00000000   Number         0  worldmap.o ABSOLUTE
    CeruleanBird\source\bit_operate.c        0x00000000   Number         0  bit_operate.o ABSOLUTE
    CeruleanBird\source\heap_solution_1.c    0x00000000   Number         0  heap_solution_1.o ABSOLUTE
    CeruleanBird\source\vector.c             0x00000000   Number         0  vector.o ABSOLUTE
    Hardware\OLED\font\Mistink_Font.c        0x00000000   Number         0  mistink_font.o ABSOLUTE
    Hardware\OLED\platform_drivers\M_stm32f103c8t6.c 0x00000000   Number         0  m_stm32f103c8t6.o ABSOLUTE
    Hardware\OLED\source\Mistink.c           0x00000000   Number         0  mistink.o ABSOLUTE
    Hardware\OLED\source\Mistink_Displayer.c 0x00000000   Number         0  mistink_displayer.o ABSOLUTE
    Hardware\five_way_key.c                  0x00000000   Number         0  five_way_key.o ABSOLUTE
    Library\misc.c                           0x00000000   Number         0  misc.o ABSOLUTE
    Library\stm32f10x_adc.c                  0x00000000   Number         0  stm32f10x_adc.o ABSOLUTE
    Library\stm32f10x_bkp.c                  0x00000000   Number         0  stm32f10x_bkp.o ABSOLUTE
    Library\stm32f10x_can.c                  0x00000000   Number         0  stm32f10x_can.o ABSOLUTE
    Library\stm32f10x_cec.c                  0x00000000   Number         0  stm32f10x_cec.o ABSOLUTE
    Library\stm32f10x_crc.c                  0x00000000   Number         0  stm32f10x_crc.o ABSOLUTE
    Library\stm32f10x_dac.c                  0x00000000   Number         0  stm32f10x_dac.o ABSOLUTE
    Library\stm32f10x_dbgmcu.c               0x00000000   Number         0  stm32f10x_dbgmcu.o ABSOLUTE
    Library\stm32f10x_dma.c                  0x00000000   Number         0  stm32f10x_dma.o ABSOLUTE
    Library\stm32f10x_exti.c                 0x00000000   Number         0  stm32f10x_exti.o ABSOLUTE
    Library\stm32f10x_flash.c                0x00000000   Number         0  stm32f10x_flash.o ABSOLUTE
    Library\stm32f10x_fsmc.c                 0x00000000   Number         0  stm32f10x_fsmc.o ABSOLUTE
    Library\stm32f10x_gpio.c                 0x00000000   Number         0  stm32f10x_gpio.o ABSOLUTE
    Library\stm32f10x_i2c.c                  0x00000000   Number         0  stm32f10x_i2c.o ABSOLUTE
    Library\stm32f10x_iwdg.c                 0x00000000   Number         0  stm32f10x_iwdg.o ABSOLUTE
    Library\stm32f10x_pwr.c                  0x00000000   Number         0  stm32f10x_pwr.o ABSOLUTE
    Library\stm32f10x_rcc.c                  0x00000000   Number         0  stm32f10x_rcc.o ABSOLUTE
    Library\stm32f10x_rtc.c                  0x00000000   Number         0  stm32f10x_rtc.o ABSOLUTE
    Library\stm32f10x_sdio.c                 0x00000000   Number         0  stm32f10x_sdio.o ABSOLUTE
    Library\stm32f10x_spi.c                  0x00000000   Number         0  stm32f10x_spi.o ABSOLUTE
    Library\stm32f10x_tim.c                  0x00000000   Number         0  stm32f10x_tim.o ABSOLUTE
    Library\stm32f10x_usart.c                0x00000000   Number         0  stm32f10x_usart.o ABSOLUTE
    Library\stm32f10x_wwdg.c                 0x00000000   Number         0  stm32f10x_wwdg.o ABSOLUTE
    Start\\core_cm3.c                        0x00000000   Number         0  core_cm3.o ABSOLUTE
    Start\core_cm3.c                         0x00000000   Number         0  core_cm3.o ABSOLUTE
    Start\startup_stm32f10x_md.s             0x00000000   Number         0  startup_stm32f10x_md.o ABSOLUTE
    Start\system_stm32f10x.c                 0x00000000   Number         0  system_stm32f10x.o ABSOLUTE
    User\animation.c                         0x00000000   Number         0  animation.o ABSOLUTE
    User\main.c                              0x00000000   Number         0  main.o ABSOLUTE
    User\stm32f10x_it.c                      0x00000000   Number         0  stm32f10x_it.o ABSOLUTE
    dc.s                                     0x00000000   Number         0  dc.o ABSOLUTE
    RESET                                    0x08000000   Section      236  startup_stm32f10x_md.o(RESET)
    !!!main                                  0x080000ec   Section        8  __main.o(!!!main)
    !!!scatter                               0x080000f4   Section       52  __scatter.o(!!!scatter)
    !!dczerorl2                              0x08000128   Section       90  __dczerorl2.o(!!dczerorl2)
    !!handler_zi                             0x08000184   Section       28  __scatter_zi.o(!!handler_zi)
    .ARM.Collect$$_printf_percent$$00000000  0x080001a0   Section        0  _printf_percent.o(.ARM.Collect$$_printf_percent$$00000000)
    .ARM.Collect$$_printf_percent$$00000009  0x080001a0   Section        6  _printf_d.o(.ARM.Collect$$_printf_percent$$00000009)
    .ARM.Collect$$_printf_percent$$00000017  0x080001a6   Section        4  _printf_percent_end.o(.ARM.Collect$$_printf_percent$$00000017)
    .ARM.Collect$$libinit$$00000000          0x080001aa   Section        2  libinit.o(.ARM.Collect$$libinit$$00000000)
    .ARM.Collect$$libinit$$00000002          0x080001ac   Section        0  libinit2.o(.ARM.Collect$$libinit$$00000002)
    .ARM.Collect$$libinit$$00000004          0x080001ac   Section        0  libinit2.o(.ARM.Collect$$libinit$$00000004)
    .ARM.Collect$$libinit$$0000000A          0x080001ac   Section        0  libinit2.o(.ARM.Collect$$libinit$$0000000A)
    .ARM.Collect$$libinit$$0000000C          0x080001ac   Section        0  libinit2.o(.ARM.Collect$$libinit$$0000000C)
    .ARM.Collect$$libinit$$0000000E          0x080001ac   Section        0  libinit2.o(.ARM.Collect$$libinit$$0000000E)
    .ARM.Collect$$libinit$$00000011          0x080001ac   Section        0  libinit2.o(.ARM.Collect$$libinit$$00000011)
    .ARM.Collect$$libinit$$00000013          0x080001ac   Section        0  libinit2.o(.ARM.Collect$$libinit$$00000013)
    .ARM.Collect$$libinit$$00000015          0x080001ac   Section        0  libinit2.o(.ARM.Collect$$libinit$$00000015)
    .ARM.Collect$$libinit$$00000017          0x080001ac   Section        0  libinit2.o(.ARM.Collect$$libinit$$00000017)
    .ARM.Collect$$libinit$$00000019          0x080001ac   Section        0  libinit2.o(.ARM.Collect$$libinit$$00000019)
    .ARM.Collect$$libinit$$0000001B          0x080001ac   Section        0  libinit2.o(.ARM.Collect$$libinit$$0000001B)
    .ARM.Collect$$libinit$$0000001D          0x080001ac   Section        0  libinit2.o(.ARM.Collect$$libinit$$0000001D)
    .ARM.Collect$$libinit$$0000001F          0x080001ac   Section        0  libinit2.o(.ARM.Collect$$libinit$$0000001F)
    .ARM.Collect$$libinit$$00000021          0x080001ac   Section        0  libinit2.o(.ARM.Collect$$libinit$$00000021)
    .ARM.Collect$$libinit$$00000023          0x080001ac   Section        0  libinit2.o(.ARM.Collect$$libinit$$00000023)
    .ARM.Collect$$libinit$$00000025          0x080001ac   Section        0  libinit2.o(.ARM.Collect$$libinit$$00000025)
    .ARM.Collect$$libinit$$0000002C          0x080001ac   Section        0  libinit2.o(.ARM.Collect$$libinit$$0000002C)
    .ARM.Collect$$libinit$$0000002E          0x080001ac   Section        0  libinit2.o(.ARM.Collect$$libinit$$0000002E)
    .ARM.Collect$$libinit$$00000030          0x080001ac   Section        0  libinit2.o(.ARM.Collect$$libinit$$00000030)
    .ARM.Collect$$libinit$$00000032          0x080001ac   Section        0  libinit2.o(.ARM.Collect$$libinit$$00000032)
    .ARM.Collect$$libinit$$00000033          0x080001ac   Section        2  libinit2.o(.ARM.Collect$$libinit$$00000033)
    .ARM.Collect$$libshutdown$$00000000      0x080001ae   Section        2  libshutdown.o(.ARM.Collect$$libshutdown$$00000000)
    .ARM.Collect$$libshutdown$$00000002      0x080001b0   Section        0  libshutdown2.o(.ARM.Collect$$libshutdown$$00000002)
    .ARM.Collect$$libshutdown$$00000004      0x080001b0   Section        0  libshutdown2.o(.ARM.Collect$$libshutdown$$00000004)
    .ARM.Collect$$libshutdown$$00000007      0x080001b0   Section        0  libshutdown2.o(.ARM.Collect$$libshutdown$$00000007)
    .ARM.Collect$$libshutdown$$0000000A      0x080001b0   Section        0  libshutdown2.o(.ARM.Collect$$libshutdown$$0000000A)
    .ARM.Collect$$libshutdown$$0000000C      0x080001b0   Section        0  libshutdown2.o(.ARM.Collect$$libshutdown$$0000000C)
    .ARM.Collect$$libshutdown$$0000000F      0x080001b0   Section        0  libshutdown2.o(.ARM.Collect$$libshutdown$$0000000F)
    .ARM.Collect$$libshutdown$$00000010      0x080001b0   Section        2  libshutdown2.o(.ARM.Collect$$libshutdown$$00000010)
    .ARM.Collect$$rtentry$$00000000          0x080001b2   Section        0  __rtentry.o(.ARM.Collect$$rtentry$$00000000)
    .ARM.Collect$$rtentry$$00000002          0x080001b2   Section        0  __rtentry2.o(.ARM.Collect$$rtentry$$00000002)
    .ARM.Collect$$rtentry$$00000004          0x080001b2   Section        6  __rtentry4.o(.ARM.Collect$$rtentry$$00000004)
    .ARM.Collect$$rtentry$$00000009          0x080001b8   Section        0  __rtentry2.o(.ARM.Collect$$rtentry$$00000009)
    .ARM.Collect$$rtentry$$0000000A          0x080001b8   Section        4  __rtentry2.o(.ARM.Collect$$rtentry$$0000000A)
    .ARM.Collect$$rtentry$$0000000C          0x080001bc   Section        0  __rtentry2.o(.ARM.Collect$$rtentry$$0000000C)
    .ARM.Collect$$rtentry$$0000000D          0x080001bc   Section        8  __rtentry2.o(.ARM.Collect$$rtentry$$0000000D)
    .ARM.Collect$$rtexit$$00000000           0x080001c4   Section        2  rtexit.o(.ARM.Collect$$rtexit$$00000000)
    .ARM.Collect$$rtexit$$00000002           0x080001c6   Section        0  rtexit2.o(.ARM.Collect$$rtexit$$00000002)
    .ARM.Collect$$rtexit$$00000003           0x080001c6   Section        4  rtexit2.o(.ARM.Collect$$rtexit$$00000003)
    .ARM.Collect$$rtexit$$00000004           0x080001ca   Section        6  rtexit2.o(.ARM.Collect$$rtexit$$00000004)
    .text                                    0x080001d0   Section       64  startup_stm32f10x_md.o(.text)
    .text                                    0x08000210   Section        0  noretval__2sprintf.o(.text)
    .text                                    0x08000238   Section        0  __printf.o(.text)
    .text                                    0x080002a0   Section        0  _printf_dec.o(.text)
    .text                                    0x08000318   Section        0  strlen.o(.text)
    .text                                    0x08000356   Section        0  heapauxi.o(.text)
    .text                                    0x0800035c   Section        0  _rserrno.o(.text)
    .text                                    0x08000372   Section        0  _printf_intcommon.o(.text)
    .text                                    0x08000424   Section        0  _printf_char_common.o(.text)
    _printf_input_char                       0x08000425   Thumb Code    10  _printf_char_common.o(.text)
    .text                                    0x08000454   Section        0  _sputc.o(.text)
    .text                                    0x08000460   Section        8  rt_errno_addr_intlibspace.o(.text)
    .text                                    0x08000468   Section        8  libspace.o(.text)
    .text                                    0x08000470   Section       74  sys_stackheap_outer.o(.text)
    .text                                    0x080004ba   Section        0  exit.o(.text)
    .text                                    0x080004cc   Section        0  sys_exit.o(.text)
    .text                                    0x080004d8   Section        2  use_no_semi.o(.text)
    .text                                    0x080004da   Section        0  indicate_semi.o(.text)
    i.AdjustInsert                           0x080004da   Section        0  rb_tree.o(i.AdjustInsert)
    i.BT_func                                0x0800059c   Section        0  main.o(i.BT_func)
    i.BT_func2                               0x08000604   Section        0  main.o(i.BT_func2)
    i.Bit_Modification                       0x08000644   Section        0  mistink.o(i.Bit_Modification)
    i.Bit_Modify_Within_Byte                 0x08000672   Section        0  bit_operate.o(i.Bit_Modify_Within_Byte)
    i.BusFault_Handler                       0x0800069c   Section        0  stm32f10x_it.o(i.BusFault_Handler)
    i.Camera_DeepBuffer_Read                 0x080006a0   Section        0  camera.o(i.Camera_DeepBuffer_Read)
    i.Camera_DeepBuffer_Write                0x080006be   Section        0  camera.o(i.Camera_DeepBuffer_Write)
    i.Camera_Init                            0x080006e4   Section        0  camera.o(i.Camera_Init)
    i.Camera_Render                          0x080008b4   Section        0  camera.o(i.Camera_Render)
    i.Canvas_GetUnit                         0x08000d68   Section        0  canvas.o(i.Canvas_GetUnit)
    i.Canvas_Init                            0x08000d94   Section        0  canvas.o(i.Canvas_Init)
    i.Canvas_PixelOperate                    0x08000ddc   Section        0  canvas.o(i.Canvas_PixelOperate)
    i.Canvas_SetCanvasModeToRedirect         0x08000e48   Section        0  canvas.o(i.Canvas_SetCanvasModeToRedirect)
    i.Celi_DefaultRender                     0x08000e6c   Section        0  camera.o(i.Celi_DefaultRender)
    i.CeruleanBird_Init                      0x08000e74   Section        0  ceruleanbird.o(i.CeruleanBird_Init)
    i.DebugMon_Handler                       0x08000e9c   Section        0  stm32f10x_it.o(i.DebugMon_Handler)
    i.DeleteBlackLeafNodeWithRedSibling      0x08000e9e   Section        0  rb_tree.o(i.DeleteBlackLeafNodeWithRedSibling)
    i.DeleteNodeWithOneChild                 0x08000ee4   Section        0  rb_tree.o(i.DeleteNodeWithOneChild)
    i.DeleteRedLeafNode                      0x08000f2a   Section        0  rb_tree.o(i.DeleteRedLeafNode)
    i.DeleteWhenHasRedNephews                0x08000f4a   Section        0  rb_tree.o(i.DeleteWhenHasRedNephews)
    i.EngineFault_ExceptionEnumParam_Handle  0x08000ffe   Section        0  enginefault.o(i.EngineFault_ExceptionEnumParam_Handle)
    i.EngineFault_IllegalAccess_Handle       0x08001002   Section        0  enginefault.o(i.EngineFault_IllegalAccess_Handle)
    i.EngineFault_IllegalFree_Handle         0x08001006   Section        0  enginefault.o(i.EngineFault_IllegalFree_Handle)
    i.EngineFault_NullPointerGuard_Handle    0x0800100a   Section        0  enginefault.o(i.EngineFault_NullPointerGuard_Handle)
    i.ExecuteBehaviorTree                    0x0800100e   Section        0  sprites_behaviortree.o(i.ExecuteBehaviorTree)
    i.FindTargetNode                         0x080010e2   Section        0  rb_tree.o(i.FindTargetNode)
    i.Floor_DefaultRender                    0x08001122   Section        0  camera.o(i.Floor_DefaultRender)
    i.Font_Read                              0x08001184   Section        0  mistink.o(i.Font_Read)
    i.FrmRS_GetFrmRate                       0x080011d4   Section        0  frameratestrategy.o(i.FrmRS_GetFrmRate)
    i.FrmRS_deltaTime_Init                   0x08001224   Section        0  frameratestrategy.o(i.FrmRS_deltaTime_Init)
    i.FrmRS_deltaTime_Trigger                0x0800129c   Section        0  frameratestrategy.o(i.FrmRS_deltaTime_Trigger)
    i.GPIO_Init                              0x0800134c   Section        0  stm32f10x_gpio.o(i.GPIO_Init)
    i.GPIO_ResetBits                         0x08001462   Section        0  stm32f10x_gpio.o(i.GPIO_ResetBits)
    i.GPIO_SetBits                           0x08001466   Section        0  stm32f10x_gpio.o(i.GPIO_SetBits)
    i.HandleNodeWithTwoChildren              0x0800146a   Section        0  rb_tree.o(i.HandleNodeWithTwoChildren)
    i.HardFault_Handler                      0x08001488   Section        0  stm32f10x_it.o(i.HardFault_Handler)
    i.M_Int                                  0x0800148c   Section        0  mistink.o(i.M_Int)
    i.M_String                               0x080014bc   Section        0  mistink.o(i.M_String)
    i.MemManage_Handler                      0x08001594   Section        0  stm32f10x_it.o(i.MemManage_Handler)
    i.MistinkDisplayer_BufferOutput          0x08001598   Section        0  mistink_displayer.o(i.MistinkDisplayer_BufferOutput)
    i.MistinkDisplayer_Create                0x080015a8   Section        0  mistink_displayer.o(i.MistinkDisplayer_Create)
    i.MistinkOP_BufferReset                  0x08001604   Section        0  mistink.o(i.MistinkOP_BufferReset)
    i.MistinkOP_GetBufferAPI                 0x08001626   Section        0  mistink.o(i.MistinkOP_GetBufferAPI)
    i.MistinkPixel_Operate                   0x08001632   Section        0  mistink.o(i.MistinkPixel_Operate)
    i.NMI_Handler                            0x0800168e   Section        0  stm32f10x_it.o(i.NMI_Handler)
    i.NVIC_Init                              0x08001690   Section        0  misc.o(i.NVIC_Init)
    i.NodeColor                              0x08001700   Section        0  rb_tree.o(i.NodeColor)
    i.OLED_BufferOutput                      0x0800170c   Section        0  m_stm32f103c8t6.o(i.OLED_BufferOutput)
    i.OLED_Clear                             0x0800175a   Section        0  m_stm32f103c8t6.o(i.OLED_Clear)
    i.OLED_Init                              0x0800179c   Section        0  m_stm32f103c8t6.o(i.OLED_Init)
    i.OLED_Port_Init                         0x08001890   Section        0  m_stm32f103c8t6.o(i.OLED_Port_Init)
    i.OLED_WR_Byte                           0x08001944   Section        0  m_stm32f103c8t6.o(i.OLED_WR_Byte)
    i.PendSV_Handler                         0x0800199c   Section        0  stm32f10x_it.o(i.PendSV_Handler)
    i.RCC_APB1PeriphClockCmd                 0x080019a0   Section        0  stm32f10x_rcc.o(i.RCC_APB1PeriphClockCmd)
    i.RCC_APB2PeriphClockCmd                 0x080019c0   Section        0  stm32f10x_rcc.o(i.RCC_APB2PeriphClockCmd)
    i.SBT_ExecuteHandle                      0x080019e0   Section        0  main.o(i.SBT_ExecuteHandle)
    i.SBT_ExecuteHandle2                     0x08001a30   Section        0  main.o(i.SBT_ExecuteHandle2)
    i.SBT_ExecuteHandle_4                    0x08001ac4   Section        0  main.o(i.SBT_ExecuteHandle_4)
    i.SBT_ExecuteHandle_IT                   0x08001c84   Section        0  main.o(i.SBT_ExecuteHandle_IT)
    i.SBT_ExecuteHandle_kun                  0x08001cc4   Section        0  main.o(i.SBT_ExecuteHandle_kun)
    i.SIT_MapIndexHandle                     0x08001cd4   Section        0  main.o(i.SIT_MapIndexHandle)
    i.SPI_Cmd                                0x08001d08   Section        0  stm32f10x_spi.o(i.SPI_Cmd)
    i.SPI_I2S_GetFlagStatus                  0x08001d20   Section        0  stm32f10x_spi.o(i.SPI_I2S_GetFlagStatus)
    i.SPI_I2S_SendData                       0x08001d32   Section        0  stm32f10x_spi.o(i.SPI_I2S_SendData)
    i.SPI_Init                               0x08001d36   Section        0  stm32f10x_spi.o(i.SPI_Init)
    i.SSRAnim_Exec                           0x08001d72   Section        0  camera.o(i.SSRAnim_Exec)
    i.SSRAnim_FrmAdd                         0x08001d8c   Section        0  camera.o(i.SSRAnim_FrmAdd)
    i.SSRAnim_FrmExtract                     0x08001ed0   Section        0  camera.o(i.SSRAnim_FrmExtract)
    i.SSRAnim_ManagerCreate                  0x08001f68   Section        0  camera.o(i.SSRAnim_ManagerCreate)
    i.SSRAnim_Render                         0x0800201c   Section        0  camera.o(i.SSRAnim_Render)
    i.SSRAnim_RenderEnable                   0x080020e8   Section        0  camera.o(i.SSRAnim_RenderEnable)
    i.SSRAnim_ResetSingle                    0x08002100   Section        0  camera.o(i.SSRAnim_ResetSingle)
    i.SSRAnim_SetPos                         0x0800212c   Section        0  camera.o(i.SSRAnim_SetPos)
    i.SSRAnim_Update                         0x08002144   Section        0  camera.o(i.SSRAnim_Update)
    i.SSR_SetCameraExecAnim                  0x080021f8   Section        0  camera.o(i.SSR_SetCameraExecAnim)
    i.SVC_Handler                            0x0800224c   Section        0  stm32f10x_it.o(i.SVC_Handler)
    i.SetSysClock                            0x0800224e   Section        0  system_stm32f10x.o(i.SetSysClock)
    SetSysClock                              0x0800224f   Thumb Code     8  system_stm32f10x.o(i.SetSysClock)
    i.SetSysClockTo72                        0x08002258   Section        0  system_stm32f10x.o(i.SetSysClockTo72)
    SetSysClockTo72                          0x08002259   Thumb Code   214  system_stm32f10x.o(i.SetSysClockTo72)
    i.SpritesAnim_CreateManager              0x08002338   Section        0  sprites_animation.o(i.SpritesAnim_CreateManager)
    i.SpritesAnim_CreateNewChain             0x08002384   Section        0  sprites_animation.o(i.SpritesAnim_CreateNewChain)
    i.SpritesAnim_ExtractFrmData             0x080024c0   Section        0  sprites_animation.o(i.SpritesAnim_ExtractFrmData)
    i.SpritesAnim_InsertNewFrm               0x08002578   Section        0  sprites_animation.o(i.SpritesAnim_InsertNewFrm)
    i.SpritesAnim_SetAnimType                0x080026c0   Section        0  sprites_animation.o(i.SpritesAnim_SetAnimType)
    i.SpritesAnim_SwitchChain                0x080026d2   Section        0  sprites_animation.o(i.SpritesAnim_SwitchChain)
    i.SpritesAnim_Update                     0x08002718   Section        0  sprites_animation.o(i.SpritesAnim_Update)
    i.SpritesBT_Action                       0x080027a4   Section        0  sprites_behaviortree.o(i.SpritesBT_Action)
    i.SpritesBT_BusExecute                   0x080027cc   Section        0  sprites_behaviortree.o(i.SpritesBT_BusExecute)
    i.SpritesBT_Init                         0x0800285c   Section        0  sprites_behaviortree.o(i.SpritesBT_Init)
    i.SpritesBT_MountToRoot                  0x080028b4   Section        0  sprites_behaviortree.o(i.SpritesBT_MountToRoot)
    i.SpritesData_GetPos                     0x080028ec   Section        0  sprites_logical.o(i.SpritesData_GetPos)
    i.SpritesIT_Add                          0x08002914   Section        0  sprites_behaviortree.o(i.SpritesIT_Add)
    i.SpritesIT_Enable                       0x08002a64   Section        0  sprites_behaviortree.o(i.SpritesIT_Enable)
    i.SpritesIT_Exec                         0x08002a9c   Section        0  sprites_behaviortree.o(i.SpritesIT_Exec)
    i.SpritesIT_GetITNode                    0x08002b74   Section        0  sprites_behaviortree.o(i.SpritesIT_GetITNode)
    i.SpritesIT_RBStorageStrategyCreate      0x08002baa   Section        0  sprites_behaviortree.o(i.SpritesIT_RBStorageStrategyCreate)
    i.SpritesIT_Register                     0x08002c54   Section        0  sprites_behaviortree.o(i.SpritesIT_Register)
    i.SpritesMov_Forward                     0x08002cdc   Section        0  sprites_logical.o(i.SpritesMov_Forward)
    i.SpritesMov_Left                        0x08002dcc   Section        0  sprites_logical.o(i.SpritesMov_Left)
    i.SpritesMov_Right                       0x08002ed0   Section        0  sprites_logical.o(i.SpritesMov_Right)
    i.SpritesMov_SetDir                      0x08002fd4   Section        0  sprites_logical.o(i.SpritesMov_SetDir)
    i.SpritesMov_SetDirWithCamera            0x08003050   Section        0  sprites_logical.o(i.SpritesMov_SetDirWithCamera)
    i.SpritesMov_SetPosToCamera              0x0800306e   Section        0  sprites_logical.o(i.SpritesMov_SetPosToCamera)
    i.SpritesPhased_Exec                     0x0800308e   Section        0  sprites_behaviortree.o(i.SpritesPhased_Exec)
    i.SpritesPriv_Add                        0x08003110   Section        0  sprites_logical.o(i.SpritesPriv_Add)
    i.SpritesPriv_Get                        0x08003126   Section        0  sprites_logical.o(i.SpritesPriv_Get)
    i.SpritesPrivateFreeHandle               0x08003132   Section        0  main.o(i.SpritesPrivateFreeHandle)
    i.SpritesTree_Add                        0x08003140   Section        0  sprites_logical.o(i.SpritesTree_Add)
    i.SpritesTree_Init                       0x0800318c   Section        0  sprites_logical.o(i.SpritesTree_Init)
    i.SpritesTree_NodeExtract                0x080031f8   Section        0  sprites_logical.o(i.SpritesTree_NodeExtract)
    i.SpritesTree_Sort                       0x0800323c   Section        0  sprites_logical.o(i.SpritesTree_Sort)
    i.Sprites_Awaken                         0x080033b0   Section        0  sprites_logical.o(i.Sprites_Awaken)
    i.Sprites_BT_GetChild                    0x080033f8   Section        0  sprites_behaviortree.o(i.Sprites_BT_GetChild)
    i.Sprites_BT_LCNodeCreate                0x0800342a   Section        0  sprites_behaviortree.o(i.Sprites_BT_LCNodeCreate)
    i.Sprites_Exec                           0x08003448   Section        0  sprites_logical.o(i.Sprites_Exec)
    i.Sprites_ObjectCreate                   0x08003484   Section        0  sprites_logical.o(i.Sprites_ObjectCreate)
    i.Sprites_SingleRender                   0x08003570   Section        0  sprites_logical.o(i.Sprites_SingleRender)
    i.Sprites_SingleUpdate                   0x08003aa0   Section        0  sprites_logical.o(i.Sprites_SingleUpdate)
    i.Sprites_Sleep                          0x08003acc   Section        0  sprites_logical.o(i.Sprites_Sleep)
    i.Sprites_collisionWallValue             0x08003b14   Section        0  sprites_logical.o(i.Sprites_collisionWallValue)
    i.SysTick_Handler                        0x08003b28   Section        0  stm32f10x_it.o(i.SysTick_Handler)
    i.SystemInit                             0x08003b2c   Section        0  system_stm32f10x.o(i.SystemInit)
    i.TIM2_IRQHandler                        0x08003b8c   Section        0  main.o(i.TIM2_IRQHandler)
    i.TIM_ClearITPendingBit                  0x08003bb8   Section        0  stm32f10x_tim.o(i.TIM_ClearITPendingBit)
    i.TIM_Cmd                                0x08003bbe   Section        0  stm32f10x_tim.o(i.TIM_Cmd)
    i.TIM_GetCounter                         0x08003bd6   Section        0  stm32f10x_tim.o(i.TIM_GetCounter)
    i.TIM_GetITStatus                        0x08003bdc   Section        0  stm32f10x_tim.o(i.TIM_GetITStatus)
    i.TIM_ITConfig                           0x08003bfe   Section        0  stm32f10x_tim.o(i.TIM_ITConfig)
    i.TIM_SetCounter                         0x08003c10   Section        0  stm32f10x_tim.o(i.TIM_SetCounter)
    i.TIM_TimeBaseInit                       0x08003c14   Section        0  stm32f10x_tim.o(i.TIM_TimeBaseInit)
    i.Texture_Add                            0x08003cb8   Section        0  texturemapper.o(i.Texture_Add)
    i.Texture_Extract                        0x08003d24   Section        0  texturemapper.o(i.Texture_Extract)
    i.Texture_GetTexture                     0x08003da0   Section        0  texturemapper.o(i.Texture_GetTexture)
    i.TreeDelete                             0x08003db8   Section        0  rb_tree.o(i.TreeDelete)
    i.UsageFault_Handler                     0x08003ec6   Section        0  stm32f10x_it.o(i.UsageFault_Handler)
    i.WorldMap_Add                           0x08003ecc   Section        0  worldmap.o(i.WorldMap_Add)
    i.WorldMap_Extract                       0x08003f28   Section        0  worldmap.o(i.WorldMap_Extract)
    i.WorldMap_GetCurrentMapPos              0x08003f54   Section        0  worldmap.o(i.WorldMap_GetCurrentMapPos)
    i.WorldMap_GetWorldMap                   0x08003f60   Section        0  worldmap.o(i.WorldMap_GetWorldMap)
    i.__ARM_fpclassify                       0x08003f78   Section        0  fpclassify.o(i.__ARM_fpclassify)
    i.__ieee754_rem_pio2                     0x08003fa0   Section        0  rred.o(i.__ieee754_rem_pio2)
    i.__kernel_poly                          0x08004328   Section        0  poly.o(i.__kernel_poly)
    i.__kernel_tan                           0x080043d4   Section        0  tan_i.o(i.__kernel_tan)
    i.__mathlib_dbl_infnan                   0x08004650   Section        0  dunder.o(i.__mathlib_dbl_infnan)
    i.__mathlib_dbl_invalid                  0x08004656   Section        0  dunder.o(i.__mathlib_dbl_invalid)
    i.__mathlib_dbl_underflow                0x08004664   Section        0  dunder.o(i.__mathlib_dbl_underflow)
    i.bitToByte                              0x08004674   Section        0  bit_operate.o(i.bitToByte)
    i.brotherNode                            0x08004696   Section        0  rb_tree.o(i.brotherNode)
    i.c_free                                 0x080046b4   Section        0  heap_solution_1.o(i.c_free)
    i.c_malloc                               0x08004714   Section        0  heap_solution_1.o(i.c_malloc)
    i.c_realloc                              0x080047bc   Section        0  heap_solution_1.o(i.c_realloc)
    i.calculate_crc8                         0x0800490c   Section        0  heap_solution_1.o(i.calculate_crc8)
    i.createNode                             0x08004944   Section        0  rb_tree.o(i.createNode)
    i.frame_capture                          0x0800496c   Section        0  main.o(i.frame_capture)
    i.frm                                    0x0800497c   Section        0  main.o(i.frm)
    i.func2                                  0x080049b8   Section        0  main.o(i.func2)
    i.function                               0x080049f8   Section        0  main.o(i.function)
    i.function2                              0x08004a8c   Section        0  main.o(i.function2)
    i.function3                              0x08004b1c   Section        0  main.o(i.function3)
    i.function4                              0x08004bbc   Section        0  main.o(i.function4)
    i.getRoot                                0x08004c64   Section        0  rb_tree.o(i.getRoot)
    i.init_timer                             0x08004c7a   Section        0  main.o(i.init_timer)
    i.leftRotate                             0x08004cda   Section        0  rb_tree.o(i.leftRotate)
    i.main                                   0x08004d10   Section        0  main.o(i.main)
    i.memory_pool_init                       0x08005404   Section        0  heap_solution_1.o(i.memory_pool_init)
    i.rbDelete                               0x08005478   Section        0  rb_tree.o(i.rbDelete)
    i.rbInsert                               0x0800548a   Section        0  rb_tree.o(i.rbInsert)
    i.rightRotate                            0x08005500   Section        0  rb_tree.o(i.rightRotate)
    i.rotateLeft                             0x08005534   Section        0  rb_tree.o(i.rotateLeft)
    i.rotateRight                            0x08005556   Section        0  rb_tree.o(i.rotateRight)
    i.search                                 0x08005578   Section        0  rb_tree.o(i.search)
    i.sqrt                                   0x0800559a   Section        0  sqrt.o(i.sqrt)
    i.tan                                    0x080055e8   Section        0  tan.o(i.tan)
    i.vector_Create                          0x0800564c   Section        0  vector.o(i.vector_Create)
    i.vector_Magnitude                       0x08005668   Section        0  vector.o(i.vector_Magnitude)
    i.vector_MagnitudeSquare                 0x0800567a   Section        0  vector.o(i.vector_MagnitudeSquare)
    i.vector_Normalize                       0x080056b8   Section        0  vector.o(i.vector_Normalize)
    i.vector_Scalar_Div                      0x080057a8   Section        0  vector.o(i.vector_Scalar_Div)
    i.verifyBlock                            0x08005818   Section        0  heap_solution_1.o(i.verifyBlock)
    x$fpl$d2f                                0x08005834   Section       98  d2f.o(x$fpl$d2f)
    x$fpl$dadd                               0x08005898   Section      336  daddsub_clz.o(x$fpl$dadd)
    _dadd1                                   0x080058a9   Thumb Code     0  daddsub_clz.o(x$fpl$dadd)
    x$fpl$dcheck1                            0x080059e8   Section       16  dcheck1.o(x$fpl$dcheck1)
    x$fpl$dcmpinf                            0x080059f8   Section       24  dcmpi.o(x$fpl$dcmpinf)
    x$fpl$ddiv                               0x08005a10   Section      688  ddiv.o(x$fpl$ddiv)
    ddiv_entry                               0x08005a17   Thumb Code     0  ddiv.o(x$fpl$ddiv)
    x$fpl$deqf                               0x08005cc0   Section      120  deqf.o(x$fpl$deqf)
    x$fpl$dfix                               0x08005d38   Section       94  dfix.o(x$fpl$dfix)
    x$fpl$dflt                               0x08005d96   Section       46  dflt_clz.o(x$fpl$dflt)
    x$fpl$dfltu                              0x08005dc4   Section       38  dflt_clz.o(x$fpl$dfltu)
    x$fpl$dleqf                              0x08005dec   Section      120  dleqf.o(x$fpl$dleqf)
    x$fpl$dmul                               0x08005e64   Section      340  dmul.o(x$fpl$dmul)
    x$fpl$dnaninf                            0x08005fb8   Section      156  dnaninf.o(x$fpl$dnaninf)
    x$fpl$dretinf                            0x08006054   Section       12  dretinf.o(x$fpl$dretinf)
    x$fpl$drleqf                             0x08006060   Section      108  drleqf.o(x$fpl$drleqf)
    x$fpl$drsb                               0x080060cc   Section       22  daddsub_clz.o(x$fpl$drsb)
    x$fpl$dsqrt                              0x080060e4   Section      460  dsqrt_noumaal.o(x$fpl$dsqrt)
    x$fpl$dsub                               0x080062b0   Section      468  daddsub_clz.o(x$fpl$dsub)
    _dsub1                                   0x080062c1   Thumb Code     0  daddsub_clz.o(x$fpl$dsub)
    x$fpl$fadd                               0x08006484   Section      196  faddsub_clz.o(x$fpl$fadd)
    _fadd1                                   0x08006493   Thumb Code     0  faddsub_clz.o(x$fpl$fadd)
    x$fpl$fcmpinf                            0x08006548   Section       24  fcmpi.o(x$fpl$fcmpinf)
    x$fpl$fdiv                               0x08006560   Section      388  fdiv.o(x$fpl$fdiv)
    _fdiv1                                   0x08006561   Thumb Code     0  fdiv.o(x$fpl$fdiv)
    x$fpl$ffltu                              0x080066e4   Section       38  fflt_clz.o(x$fpl$ffltu)
    x$fpl$fleqf                              0x0800670c   Section      104  fleqf.o(x$fpl$fleqf)
    x$fpl$fnaninf                            0x08006774   Section      140  fnaninf.o(x$fpl$fnaninf)
    x$fpl$fretinf                            0x08006800   Section       10  fretinf.o(x$fpl$fretinf)
    x$fpl$frleqf                             0x0800680a   Section       98  frleqf.o(x$fpl$frleqf)
    x$fpl$fsub                               0x0800686c   Section      234  faddsub_clz.o(x$fpl$fsub)
    _fsub1                                   0x0800687b   Thumb Code     0  faddsub_clz.o(x$fpl$fsub)
    x$fpl$retnan                             0x08006956   Section      100  retnan.o(x$fpl$retnan)
    x$fpl$scalbn                             0x080069ba   Section       92  scalbn.o(x$fpl$scalbn)
    x$fpl$trapveneer                         0x08006a16   Section       48  trapv.o(x$fpl$trapveneer)
    .constdata                               0x08006a46   Section      796  main.o(.constdata)
    x$fpl$usenofp                            0x08006a46   Section        0  usenofp.o(x$fpl$usenofp)
    .constdata                               0x08006d62   Section    10864  animation.o(.constdata)
    .constdata                               0x080097d2   Section     1520  mistink_font.o(.constdata)
    .constdata                               0x08009dc8   Section      200  rred.o(.constdata)
    pio2s                                    0x08009dc8   Data          48  rred.o(.constdata)
    twooverpi                                0x08009df8   Data         152  rred.o(.constdata)
    .constdata                               0x08009e90   Section       96  tan_i.o(.constdata)
    Todd                                     0x08009e90   Data          48  tan_i.o(.constdata)
    Teven                                    0x08009ec0   Data          48  tan_i.o(.constdata)
    .data                                    0x20000000   Section      608  main.o(.data)
    .data                                    0x20000260   Section       12  camera.o(.data)
    .data                                    0x2000026c   Section        8  canvas.o(.data)
    .data                                    0x20000274   Section        8  heap_solution_1.o(.data)
    BlockListHeader                          0x20000278   Data           4  heap_solution_1.o(.data)
    .data                                    0x2000027c   Section        4  texturemapper.o(.data)
    .data                                    0x20000280   Section        8  worldmap.o(.data)
    .data                                    0x20000288   Section        4  frameratestrategy.o(.data)
    .data                                    0x2000028c   Section        8  sprites_animation.o(.data)
    .data                                    0x20000294   Section        8  sprites_logical.o(.data)
    .data                                    0x2000029c   Section        4  sprites_behaviortree.o(.data)
    Sprites_BT_ManagerTree                   0x2000029c   Data           4  sprites_behaviortree.o(.data)
    .bss                                     0x200002a0   Section    10240  heap_solution_1.o(.bss)
    MEMORY_POOL                              0x200002a0   Data       10240  heap_solution_1.o(.bss)
    .bss                                     0x20002aa0   Section       96  libspace.o(.bss)
    HEAP                                     0x20002b00   Section      512  startup_stm32f10x_md.o(HEAP)
    Heap_Mem                                 0x20002b00   Data         512  startup_stm32f10x_md.o(HEAP)
    STACK                                    0x20002d00   Section     1024  startup_stm32f10x_md.o(STACK)
    Stack_Mem                                0x20002d00   Data        1024  startup_stm32f10x_md.o(STACK)
    __initial_sp                             0x20003100   Data           0  startup_stm32f10x_md.o(STACK)

    Global Symbols

    Symbol Name                              Value     Ov Type        Size  Object(Section)

    BuildAttributes$$THM_ISAv4$P$D$K$B$S$PE$A:L22UL41UL21$X:L11$S22US41US21$IEEE1$IW$USESV6$~STKCKD$USESV7$~SHL$OTIME$ROPI$IEEEX$EBA8$UX$STANDARDLIB$REQ8$PRES8$EABIv2 0x00000000   Number         0  anon$$obj.o ABSOLUTE
    __ARM_use_no_argv                        0x00000000   Number         0  main.o ABSOLUTE
    __ARM_exceptions_init                     - Undefined Weak Reference
    __alloca_initialize                       - Undefined Weak Reference
    __arm_preinit_                            - Undefined Weak Reference
    __cpp_initialize__aeabi_                  - Undefined Weak Reference
    __cxa_finalize                            - Undefined Weak Reference
    __rt_locale                               - Undefined Weak Reference
    __sigvec_lookup                           - Undefined Weak Reference
    _atexit_init                              - Undefined Weak Reference
    _call_atexit_fns                          - Undefined Weak Reference
    _clock_init                               - Undefined Weak Reference
    _fp_trap_init                             - Undefined Weak Reference
    _fp_trap_shutdown                         - Undefined Weak Reference
    _get_lc_collate                           - Undefined Weak Reference
    _get_lc_ctype                             - Undefined Weak Reference
    _get_lc_monetary                          - Undefined Weak Reference
    _get_lc_numeric                           - Undefined Weak Reference
    _get_lc_time                              - Undefined Weak Reference
    _getenv_init                              - Undefined Weak Reference
    _handle_redirection                       - Undefined Weak Reference
    _init_alloc                               - Undefined Weak Reference
    _init_user_alloc                          - Undefined Weak Reference
    _initio                                   - Undefined Weak Reference
    _printf_post_padding                      - Undefined Weak Reference
    _printf_pre_padding                       - Undefined Weak Reference
    _printf_truncate_signed                   - Undefined Weak Reference
    _printf_truncate_unsigned                 - Undefined Weak Reference
    _rand_init                                - Undefined Weak Reference
    _signal_finish                            - Undefined Weak Reference
    _signal_init                              - Undefined Weak Reference
    _terminate_alloc                          - Undefined Weak Reference
    _terminate_user_alloc                     - Undefined Weak Reference
    _terminateio                              - Undefined Weak Reference
    __Vectors_Size                           0x000000ec   Number         0  startup_stm32f10x_md.o ABSOLUTE
    __Vectors                                0x08000000   Data           4  startup_stm32f10x_md.o(RESET)
    __Vectors_End                            0x080000ec   Data           0  startup_stm32f10x_md.o(RESET)
    __main                                   0x080000ed   Thumb Code     8  __main.o(!!!main)
    __scatterload                            0x080000f5   Thumb Code     0  __scatter.o(!!!scatter)
    __scatterload_rt2                        0x080000f5   Thumb Code    44  __scatter.o(!!!scatter)
    __scatterload_rt2_thumb_only             0x080000f5   Thumb Code     0  __scatter.o(!!!scatter)
    __scatterload_null                       0x08000103   Thumb Code     0  __scatter.o(!!!scatter)
    __decompress                             0x08000129   Thumb Code    90  __dczerorl2.o(!!dczerorl2)
    __decompress1                            0x08000129   Thumb Code     0  __dczerorl2.o(!!dczerorl2)
    __scatterload_zeroinit                   0x08000185   Thumb Code    28  __scatter_zi.o(!!handler_zi)
    _printf_d                                0x080001a1   Thumb Code     0  _printf_d.o(.ARM.Collect$$_printf_percent$$00000009)
    _printf_percent                          0x080001a1   Thumb Code     0  _printf_percent.o(.ARM.Collect$$_printf_percent$$00000000)
    _printf_percent_end                      0x080001a7   Thumb Code     0  _printf_percent_end.o(.ARM.Collect$$_printf_percent$$00000017)
    __rt_lib_init                            0x080001ab   Thumb Code     0  libinit.o(.ARM.Collect$$libinit$$00000000)
    __rt_lib_init_alloca_1                   0x080001ad   Thumb Code     0  libinit2.o(.ARM.Collect$$libinit$$0000002E)
    __rt_lib_init_argv_1                     0x080001ad   Thumb Code     0  libinit2.o(.ARM.Collect$$libinit$$0000002C)
    __rt_lib_init_atexit_1                   0x080001ad   Thumb Code     0  libinit2.o(.ARM.Collect$$libinit$$0000001B)
    __rt_lib_init_clock_1                    0x080001ad   Thumb Code     0  libinit2.o(.ARM.Collect$$libinit$$00000021)
    __rt_lib_init_cpp_1                      0x080001ad   Thumb Code     0  libinit2.o(.ARM.Collect$$libinit$$00000032)
    __rt_lib_init_exceptions_1               0x080001ad   Thumb Code     0  libinit2.o(.ARM.Collect$$libinit$$00000030)
    __rt_lib_init_fp_1                       0x080001ad   Thumb Code     0  libinit2.o(.ARM.Collect$$libinit$$00000002)
    __rt_lib_init_fp_trap_1                  0x080001ad   Thumb Code     0  libinit2.o(.ARM.Collect$$libinit$$0000001F)
    __rt_lib_init_getenv_1                   0x080001ad   Thumb Code     0  libinit2.o(.ARM.Collect$$libinit$$00000023)
    __rt_lib_init_heap_1                     0x080001ad   Thumb Code     0  libinit2.o(.ARM.Collect$$libinit$$0000000A)
    __rt_lib_init_lc_collate_1               0x080001ad   Thumb Code     0  libinit2.o(.ARM.Collect$$libinit$$00000011)
    __rt_lib_init_lc_ctype_1                 0x080001ad   Thumb Code     0  libinit2.o(.ARM.Collect$$libinit$$00000013)
    __rt_lib_init_lc_monetary_1              0x080001ad   Thumb Code     0  libinit2.o(.ARM.Collect$$libinit$$00000015)
    __rt_lib_init_lc_numeric_1               0x080001ad   Thumb Code     0  libinit2.o(.ARM.Collect$$libinit$$00000017)
    __rt_lib_init_lc_time_1                  0x080001ad   Thumb Code     0  libinit2.o(.ARM.Collect$$libinit$$00000019)
    __rt_lib_init_preinit_1                  0x080001ad   Thumb Code     0  libinit2.o(.ARM.Collect$$libinit$$00000004)
    __rt_lib_init_rand_1                     0x080001ad   Thumb Code     0  libinit2.o(.ARM.Collect$$libinit$$0000000E)
    __rt_lib_init_return                     0x080001ad   Thumb Code     0  libinit2.o(.ARM.Collect$$libinit$$00000033)
    __rt_lib_init_signal_1                   0x080001ad   Thumb Code     0  libinit2.o(.ARM.Collect$$libinit$$0000001D)
    __rt_lib_init_stdio_1                    0x080001ad   Thumb Code     0  libinit2.o(.ARM.Collect$$libinit$$00000025)
    __rt_lib_init_user_alloc_1               0x080001ad   Thumb Code     0  libinit2.o(.ARM.Collect$$libinit$$0000000C)
    __rt_lib_shutdown                        0x080001af   Thumb Code     0  libshutdown.o(.ARM.Collect$$libshutdown$$00000000)
    __rt_lib_shutdown_cpp_1                  0x080001b1   Thumb Code     0  libshutdown2.o(.ARM.Collect$$libshutdown$$00000002)
    __rt_lib_shutdown_fp_trap_1              0x080001b1   Thumb Code     0  libshutdown2.o(.ARM.Collect$$libshutdown$$00000007)
    __rt_lib_shutdown_heap_1                 0x080001b1   Thumb Code     0  libshutdown2.o(.ARM.Collect$$libshutdown$$0000000F)
    __rt_lib_shutdown_return                 0x080001b1   Thumb Code     0  libshutdown2.o(.ARM.Collect$$libshutdown$$00000010)
    __rt_lib_shutdown_signal_1               0x080001b1   Thumb Code     0  libshutdown2.o(.ARM.Collect$$libshutdown$$0000000A)
    __rt_lib_shutdown_stdio_1                0x080001b1   Thumb Code     0  libshutdown2.o(.ARM.Collect$$libshutdown$$00000004)
    __rt_lib_shutdown_user_alloc_1           0x080001b1   Thumb Code     0  libshutdown2.o(.ARM.Collect$$libshutdown$$0000000C)
    __rt_entry                               0x080001b3   Thumb Code     0  __rtentry.o(.ARM.Collect$$rtentry$$00000000)
    __rt_entry_presh_1                       0x080001b3   Thumb Code     0  __rtentry2.o(.ARM.Collect$$rtentry$$00000002)
    __rt_entry_sh                            0x080001b3   Thumb Code     0  __rtentry4.o(.ARM.Collect$$rtentry$$00000004)
    __rt_entry_li                            0x080001b9   Thumb Code     0  __rtentry2.o(.ARM.Collect$$rtentry$$0000000A)
    __rt_entry_postsh_1                      0x080001b9   Thumb Code     0  __rtentry2.o(.ARM.Collect$$rtentry$$00000009)
    __rt_entry_main                          0x080001bd   Thumb Code     0  __rtentry2.o(.ARM.Collect$$rtentry$$0000000D)
    __rt_entry_postli_1                      0x080001bd   Thumb Code     0  __rtentry2.o(.ARM.Collect$$rtentry$$0000000C)
    __rt_exit                                0x080001c5   Thumb Code     0  rtexit.o(.ARM.Collect$$rtexit$$00000000)
    __rt_exit_ls                             0x080001c7   Thumb Code     0  rtexit2.o(.ARM.Collect$$rtexit$$00000003)
    __rt_exit_prels_1                        0x080001c7   Thumb Code     0  rtexit2.o(.ARM.Collect$$rtexit$$00000002)
    __rt_exit_exit                           0x080001cb   Thumb Code     0  rtexit2.o(.ARM.Collect$$rtexit$$00000004)
    Reset_Handler                            0x080001d1   Thumb Code     8  startup_stm32f10x_md.o(.text)
    ADC1_2_IRQHandler                        0x080001eb   Thumb Code     0  startup_stm32f10x_md.o(.text)
    CAN1_RX1_IRQHandler                      0x080001eb   Thumb Code     0  startup_stm32f10x_md.o(.text)
    CAN1_SCE_IRQHandler                      0x080001eb   Thumb Code     0  startup_stm32f10x_md.o(.text)
    DMA1_Channel1_IRQHandler                 0x080001eb   Thumb Code     0  startup_stm32f10x_md.o(.text)
    DMA1_Channel2_IRQHandler                 0x080001eb   Thumb Code     0  startup_stm32f10x_md.o(.text)
    DMA1_Channel3_IRQHandler                 0x080001eb   Thumb Code     0  startup_stm32f10x_md.o(.text)
    DMA1_Channel4_IRQHandler                 0x080001eb   Thumb Code     0  startup_stm32f10x_md.o(.text)
    DMA1_Channel5_IRQHandler                 0x080001eb   Thumb Code     0  startup_stm32f10x_md.o(.text)
    DMA1_Channel6_IRQHandler                 0x080001eb   Thumb Code     0  startup_stm32f10x_md.o(.text)
    DMA1_Channel7_IRQHandler                 0x080001eb   Thumb Code     0  startup_stm32f10x_md.o(.text)
    EXTI0_IRQHandler                         0x080001eb   Thumb Code     0  startup_stm32f10x_md.o(.text)
    EXTI15_10_IRQHandler                     0x080001eb   Thumb Code     0  startup_stm32f10x_md.o(.text)
    EXTI1_IRQHandler                         0x080001eb   Thumb Code     0  startup_stm32f10x_md.o(.text)
    EXTI2_IRQHandler                         0x080001eb   Thumb Code     0  startup_stm32f10x_md.o(.text)
    EXTI3_IRQHandler                         0x080001eb   Thumb Code     0  startup_stm32f10x_md.o(.text)
    EXTI4_IRQHandler                         0x080001eb   Thumb Code     0  startup_stm32f10x_md.o(.text)
    EXTI9_5_IRQHandler                       0x080001eb   Thumb Code     0  startup_stm32f10x_md.o(.text)
    FLASH_IRQHandler                         0x080001eb   Thumb Code     0  startup_stm32f10x_md.o(.text)
    I2C1_ER_IRQHandler                       0x080001eb   Thumb Code     0  startup_stm32f10x_md.o(.text)
    I2C1_EV_IRQHandler                       0x080001eb   Thumb Code     0  startup_stm32f10x_md.o(.text)
    I2C2_ER_IRQHandler                       0x080001eb   Thumb Code     0  startup_stm32f10x_md.o(.text)
    I2C2_EV_IRQHandler                       0x080001eb   Thumb Code     0  startup_stm32f10x_md.o(.text)
    PVD_IRQHandler                           0x080001eb   Thumb Code     0  startup_stm32f10x_md.o(.text)
    RCC_IRQHandler                           0x080001eb   Thumb Code     0  startup_stm32f10x_md.o(.text)
    RTCAlarm_IRQHandler                      0x080001eb   Thumb Code     0  startup_stm32f10x_md.o(.text)
    RTC_IRQHandler                           0x080001eb   Thumb Code     0  startup_stm32f10x_md.o(.text)
    SPI1_IRQHandler                          0x080001eb   Thumb Code     0  startup_stm32f10x_md.o(.text)
    SPI2_IRQHandler                          0x080001eb   Thumb Code     0  startup_stm32f10x_md.o(.text)
    TAMPER_IRQHandler                        0x080001eb   Thumb Code     0  startup_stm32f10x_md.o(.text)
    TIM1_BRK_IRQHandler                      0x080001eb   Thumb Code     0  startup_stm32f10x_md.o(.text)
    TIM1_CC_IRQHandler                       0x080001eb   Thumb Code     0  startup_stm32f10x_md.o(.text)
    TIM1_TRG_COM_IRQHandler                  0x080001eb   Thumb Code     0  startup_stm32f10x_md.o(.text)
    TIM1_UP_IRQHandler                       0x080001eb   Thumb Code     0  startup_stm32f10x_md.o(.text)
    TIM3_IRQHandler                          0x080001eb   Thumb Code     0  startup_stm32f10x_md.o(.text)
    TIM4_IRQHandler                          0x080001eb   Thumb Code     0  startup_stm32f10x_md.o(.text)
    USART1_IRQHandler                        0x080001eb   Thumb Code     0  startup_stm32f10x_md.o(.text)
    USART2_IRQHandler                        0x080001eb   Thumb Code     0  startup_stm32f10x_md.o(.text)
    USART3_IRQHandler                        0x080001eb   Thumb Code     0  startup_stm32f10x_md.o(.text)
    USBWakeUp_IRQHandler                     0x080001eb   Thumb Code     0  startup_stm32f10x_md.o(.text)
    USB_HP_CAN1_TX_IRQHandler                0x080001eb   Thumb Code     0  startup_stm32f10x_md.o(.text)
    USB_LP_CAN1_RX0_IRQHandler               0x080001eb   Thumb Code     0  startup_stm32f10x_md.o(.text)
    WWDG_IRQHandler                          0x080001eb   Thumb Code     0  startup_stm32f10x_md.o(.text)
    __user_initial_stackheap                 0x080001ed   Thumb Code     0  startup_stm32f10x_md.o(.text)
    __2sprintf                               0x08000211   Thumb Code    34  noretval__2sprintf.o(.text)
    __printf                                 0x08000239   Thumb Code   104  __printf.o(.text)
    _printf_int_dec                          0x080002a1   Thumb Code   104  _printf_dec.o(.text)
    strlen                                   0x08000319   Thumb Code    62  strlen.o(.text)
    __use_two_region_memory                  0x08000357   Thumb Code     2  heapauxi.o(.text)
    __rt_heap_escrow$2region                 0x08000359   Thumb Code     2  heapauxi.o(.text)
    __rt_heap_expand$2region                 0x0800035b   Thumb Code     2  heapauxi.o(.text)
    __read_errno                             0x0800035d   Thumb Code    10  _rserrno.o(.text)
    __set_errno                              0x08000367   Thumb Code    12  _rserrno.o(.text)
    _printf_int_common                       0x08000373   Thumb Code   178  _printf_intcommon.o(.text)
    _printf_char_common                      0x0800042f   Thumb Code    32  _printf_char_common.o(.text)
    _sputc                                   0x08000455   Thumb Code    10  _sputc.o(.text)
    __aeabi_errno_addr                       0x08000461   Thumb Code     8  rt_errno_addr_intlibspace.o(.text)
    __errno$intlibspace                      0x08000461   Thumb Code     0  rt_errno_addr_intlibspace.o(.text)
    __rt_errno_addr$intlibspace              0x08000461   Thumb Code     0  rt_errno_addr_intlibspace.o(.text)
    __user_libspace                          0x08000469   Thumb Code     8  libspace.o(.text)
    __user_perproc_libspace                  0x08000469   Thumb Code     0  libspace.o(.text)
    __user_perthread_libspace                0x08000469   Thumb Code     0  libspace.o(.text)
    __user_setup_stackheap                   0x08000471   Thumb Code    74  sys_stackheap_outer.o(.text)
    exit                                     0x080004bb   Thumb Code    18  exit.o(.text)
    _sys_exit                                0x080004cd   Thumb Code     8  sys_exit.o(.text)
    __I$use$semihosting                      0x080004d9   Thumb Code     0  use_no_semi.o(.text)
    __use_no_semihosting_swi                 0x080004d9   Thumb Code     2  use_no_semi.o(.text)
    AdjustInsert                             0x080004db   Thumb Code   192  rb_tree.o(i.AdjustInsert)
    __semihosting_library_function           0x080004db   Thumb Code     0  indicate_semi.o(.text)
    BT_func                                  0x0800059d   Thumb Code    90  main.o(i.BT_func)
    BT_func2                                 0x08000605   Thumb Code    58  main.o(i.BT_func2)
    Bit_Modification                         0x08000645   Thumb Code    46  mistink.o(i.Bit_Modification)
    Bit_Modify_Within_Byte                   0x08000673   Thumb Code    42  bit_operate.o(i.Bit_Modify_Within_Byte)
    BusFault_Handler                         0x0800069d   Thumb Code     4  stm32f10x_it.o(i.BusFault_Handler)
    Camera_DeepBuffer_Read                   0x080006a1   Thumb Code    30  camera.o(i.Camera_DeepBuffer_Read)
    Camera_DeepBuffer_Write                  0x080006bf   Thumb Code    38  camera.o(i.Camera_DeepBuffer_Write)
    Camera_Init                              0x080006e5   Thumb Code   434  camera.o(i.Camera_Init)
    Camera_Render                            0x080008b5   Thumb Code  1202  camera.o(i.Camera_Render)
    Canvas_GetUnit                           0x08000d69   Thumb Code    38  canvas.o(i.Canvas_GetUnit)
    Canvas_Init                              0x08000d95   Thumb Code    64  canvas.o(i.Canvas_Init)
    Canvas_PixelOperate                      0x08000ddd   Thumb Code   106  canvas.o(i.Canvas_PixelOperate)
    Canvas_SetCanvasModeToRedirect           0x08000e49   Thumb Code    28  canvas.o(i.Canvas_SetCanvasModeToRedirect)
    Celi_DefaultRender                       0x08000e6d   Thumb Code     8  camera.o(i.Celi_DefaultRender)
    CeruleanBird_Init                        0x08000e75   Thumb Code    40  ceruleanbird.o(i.CeruleanBird_Init)
    DebugMon_Handler                         0x08000e9d   Thumb Code     2  stm32f10x_it.o(i.DebugMon_Handler)
    DeleteBlackLeafNodeWithRedSibling        0x08000e9f   Thumb Code    70  rb_tree.o(i.DeleteBlackLeafNodeWithRedSibling)
    DeleteNodeWithOneChild                   0x08000ee5   Thumb Code    70  rb_tree.o(i.DeleteNodeWithOneChild)
    DeleteRedLeafNode                        0x08000f2b   Thumb Code    32  rb_tree.o(i.DeleteRedLeafNode)
    DeleteWhenHasRedNephews                  0x08000f4b   Thumb Code   180  rb_tree.o(i.DeleteWhenHasRedNephews)
    EngineFault_ExceptionEnumParam_Handle    0x08000fff   Thumb Code     4  enginefault.o(i.EngineFault_ExceptionEnumParam_Handle)
    EngineFault_IllegalAccess_Handle         0x08001003   Thumb Code     4  enginefault.o(i.EngineFault_IllegalAccess_Handle)
    EngineFault_IllegalFree_Handle           0x08001007   Thumb Code     4  enginefault.o(i.EngineFault_IllegalFree_Handle)
    EngineFault_NullPointerGuard_Handle      0x0800100b   Thumb Code     4  enginefault.o(i.EngineFault_NullPointerGuard_Handle)
    ExecuteBehaviorTree                      0x0800100f   Thumb Code   212  sprites_behaviortree.o(i.ExecuteBehaviorTree)
    FindTargetNode                           0x080010e3   Thumb Code    64  rb_tree.o(i.FindTargetNode)
    Floor_DefaultRender                      0x08001123   Thumb Code    98  camera.o(i.Floor_DefaultRender)
    Font_Read                                0x08001185   Thumb Code    74  mistink.o(i.Font_Read)
    FrmRS_GetFrmRate                         0x080011d5   Thumb Code    60  frameratestrategy.o(i.FrmRS_GetFrmRate)
    FrmRS_deltaTime_Init                     0x08001225   Thumb Code   114  frameratestrategy.o(i.FrmRS_deltaTime_Init)
    FrmRS_deltaTime_Trigger                  0x0800129d   Thumb Code   168  frameratestrategy.o(i.FrmRS_deltaTime_Trigger)
    GPIO_Init                                0x0800134d   Thumb Code   278  stm32f10x_gpio.o(i.GPIO_Init)
    GPIO_ResetBits                           0x08001463   Thumb Code     4  stm32f10x_gpio.o(i.GPIO_ResetBits)
    GPIO_SetBits                             0x08001467   Thumb Code     4  stm32f10x_gpio.o(i.GPIO_SetBits)
    HandleNodeWithTwoChildren                0x0800146b   Thumb Code    30  rb_tree.o(i.HandleNodeWithTwoChildren)
    HardFault_Handler                        0x08001489   Thumb Code     4  stm32f10x_it.o(i.HardFault_Handler)
    M_Int                                    0x0800148d   Thumb Code    44  mistink.o(i.M_Int)
    M_String                                 0x080014bd   Thumb Code   216  mistink.o(i.M_String)
    MemManage_Handler                        0x08001595   Thumb Code     4  stm32f10x_it.o(i.MemManage_Handler)
    MistinkDisplayer_BufferOutput            0x08001599   Thumb Code    16  mistink_displayer.o(i.MistinkDisplayer_BufferOutput)
    MistinkDisplayer_Create                  0x080015a9   Thumb Code    92  mistink_displayer.o(i.MistinkDisplayer_Create)
    MistinkOP_BufferReset                    0x08001605   Thumb Code    34  mistink.o(i.MistinkOP_BufferReset)
    MistinkOP_GetBufferAPI                   0x08001627   Thumb Code    12  mistink.o(i.MistinkOP_GetBufferAPI)
    MistinkPixel_Operate                     0x08001633   Thumb Code    92  mistink.o(i.MistinkPixel_Operate)
    NMI_Handler                              0x0800168f   Thumb Code     2  stm32f10x_it.o(i.NMI_Handler)
    NVIC_Init                                0x08001691   Thumb Code   100  misc.o(i.NVIC_Init)
    NodeColor                                0x08001701   Thumb Code    12  rb_tree.o(i.NodeColor)
    OLED_BufferOutput                        0x0800170d   Thumb Code    78  m_stm32f103c8t6.o(i.OLED_BufferOutput)
    OLED_Clear                               0x0800175b   Thumb Code    64  m_stm32f103c8t6.o(i.OLED_Clear)
    OLED_Init                                0x0800179d   Thumb Code   236  m_stm32f103c8t6.o(i.OLED_Init)
    OLED_Port_Init                           0x08001891   Thumb Code   172  m_stm32f103c8t6.o(i.OLED_Port_Init)
    OLED_WR_Byte                             0x08001945   Thumb Code    80  m_stm32f103c8t6.o(i.OLED_WR_Byte)
    PendSV_Handler                           0x0800199d   Thumb Code     2  stm32f10x_it.o(i.PendSV_Handler)
    RCC_APB1PeriphClockCmd                   0x080019a1   Thumb Code    26  stm32f10x_rcc.o(i.RCC_APB1PeriphClockCmd)
    RCC_APB2PeriphClockCmd                   0x080019c1   Thumb Code    26  stm32f10x_rcc.o(i.RCC_APB2PeriphClockCmd)
    SBT_ExecuteHandle                        0x080019e1   Thumb Code    80  main.o(i.SBT_ExecuteHandle)
    SBT_ExecuteHandle2                       0x08001a31   Thumb Code   130  main.o(i.SBT_ExecuteHandle2)
    SBT_ExecuteHandle_4                      0x08001ac5   Thumb Code   420  main.o(i.SBT_ExecuteHandle_4)
    SBT_ExecuteHandle_IT                     0x08001c85   Thumb Code    58  main.o(i.SBT_ExecuteHandle_IT)
    SBT_ExecuteHandle_kun                    0x08001cc5   Thumb Code    16  main.o(i.SBT_ExecuteHandle_kun)
    SIT_MapIndexHandle                       0x08001cd5   Thumb Code    48  main.o(i.SIT_MapIndexHandle)
    SPI_Cmd                                  0x08001d09   Thumb Code    24  stm32f10x_spi.o(i.SPI_Cmd)
    SPI_I2S_GetFlagStatus                    0x08001d21   Thumb Code    18  stm32f10x_spi.o(i.SPI_I2S_GetFlagStatus)
    SPI_I2S_SendData                         0x08001d33   Thumb Code     4  stm32f10x_spi.o(i.SPI_I2S_SendData)
    SPI_Init                                 0x08001d37   Thumb Code    60  stm32f10x_spi.o(i.SPI_Init)
    SSRAnim_Exec                             0x08001d73   Thumb Code    26  camera.o(i.SSRAnim_Exec)
    SSRAnim_FrmAdd                           0x08001d8d   Thumb Code   320  camera.o(i.SSRAnim_FrmAdd)
    SSRAnim_FrmExtract                       0x08001ed1   Thumb Code   150  camera.o(i.SSRAnim_FrmExtract)
    SSRAnim_ManagerCreate                    0x08001f69   Thumb Code   176  camera.o(i.SSRAnim_ManagerCreate)
    SSRAnim_Render                           0x0800201d   Thumb Code   204  camera.o(i.SSRAnim_Render)
    SSRAnim_RenderEnable                     0x080020e9   Thumb Code    20  camera.o(i.SSRAnim_RenderEnable)
    SSRAnim_ResetSingle                      0x08002101   Thumb Code    44  camera.o(i.SSRAnim_ResetSingle)
    SSRAnim_SetPos                           0x0800212d   Thumb Code    22  camera.o(i.SSRAnim_SetPos)
    SSRAnim_Update                           0x08002145   Thumb Code   174  camera.o(i.SSRAnim_Update)
    SSR_SetCameraExecAnim                    0x080021f9   Thumb Code    80  camera.o(i.SSR_SetCameraExecAnim)
    SVC_Handler                              0x0800224d   Thumb Code     2  stm32f10x_it.o(i.SVC_Handler)
    SpritesAnim_CreateManager                0x08002339   Thumb Code    72  sprites_animation.o(i.SpritesAnim_CreateManager)
    SpritesAnim_CreateNewChain               0x08002385   Thumb Code   310  sprites_animation.o(i.SpritesAnim_CreateNewChain)
    SpritesAnim_ExtractFrmData               0x080024c1   Thumb Code   184  sprites_animation.o(i.SpritesAnim_ExtractFrmData)
    SpritesAnim_InsertNewFrm                 0x08002579   Thumb Code   322  sprites_animation.o(i.SpritesAnim_InsertNewFrm)
    SpritesAnim_SetAnimType                  0x080026c1   Thumb Code    18  sprites_animation.o(i.SpritesAnim_SetAnimType)
    SpritesAnim_SwitchChain                  0x080026d3   Thumb Code    68  sprites_animation.o(i.SpritesAnim_SwitchChain)
    SpritesAnim_Update                       0x08002719   Thumb Code   134  sprites_animation.o(i.SpritesAnim_Update)
    SpritesBT_Action                         0x080027a5   Thumb Code    40  sprites_behaviortree.o(i.SpritesBT_Action)
    SpritesBT_BusExecute                     0x080027cd   Thumb Code   138  sprites_behaviortree.o(i.SpritesBT_BusExecute)
    SpritesBT_Init                           0x0800285d   Thumb Code    82  sprites_behaviortree.o(i.SpritesBT_Init)
    SpritesBT_MountToRoot                    0x080028b5   Thumb Code    50  sprites_behaviortree.o(i.SpritesBT_MountToRoot)
    SpritesData_GetPos                       0x080028ed   Thumb Code    38  sprites_logical.o(i.SpritesData_GetPos)
    SpritesIT_Add                            0x08002915   Thumb Code   330  sprites_behaviortree.o(i.SpritesIT_Add)
    SpritesIT_Enable                         0x08002a65   Thumb Code    52  sprites_behaviortree.o(i.SpritesIT_Enable)
    SpritesIT_Exec                           0x08002a9d   Thumb Code   216  sprites_behaviortree.o(i.SpritesIT_Exec)
    SpritesIT_GetITNode                      0x08002b75   Thumb Code    54  sprites_behaviortree.o(i.SpritesIT_GetITNode)
    SpritesIT_RBStorageStrategyCreate        0x08002bab   Thumb Code   170  sprites_behaviortree.o(i.SpritesIT_RBStorageStrategyCreate)
    SpritesIT_Register                       0x08002c55   Thumb Code   130  sprites_behaviortree.o(i.SpritesIT_Register)
    SpritesMov_Forward                       0x08002cdd   Thumb Code   236  sprites_logical.o(i.SpritesMov_Forward)
    SpritesMov_Left                          0x08002dcd   Thumb Code   256  sprites_logical.o(i.SpritesMov_Left)
    SpritesMov_Right                         0x08002ed1   Thumb Code   256  sprites_logical.o(i.SpritesMov_Right)
    SpritesMov_SetDir                        0x08002fd5   Thumb Code   112  sprites_logical.o(i.SpritesMov_SetDir)
    SpritesMov_SetDirWithCamera              0x08003051   Thumb Code    30  sprites_logical.o(i.SpritesMov_SetDirWithCamera)
    SpritesMov_SetPosToCamera                0x0800306f   Thumb Code    32  sprites_logical.o(i.SpritesMov_SetPosToCamera)
    SpritesPhased_Exec                       0x0800308f   Thumb Code   130  sprites_behaviortree.o(i.SpritesPhased_Exec)
    SpritesPriv_Add                          0x08003111   Thumb Code    22  sprites_logical.o(i.SpritesPriv_Add)
    SpritesPriv_Get                          0x08003127   Thumb Code    12  sprites_logical.o(i.SpritesPriv_Get)
    SpritesPrivateFreeHandle                 0x08003133   Thumb Code    12  main.o(i.SpritesPrivateFreeHandle)
    SpritesTree_Add                          0x08003141   Thumb Code    72  sprites_logical.o(i.SpritesTree_Add)
    SpritesTree_Init                         0x0800318d   Thumb Code   100  sprites_logical.o(i.SpritesTree_Init)
    SpritesTree_NodeExtract                  0x080031f9   Thumb Code    68  sprites_logical.o(i.SpritesTree_NodeExtract)
    SpritesTree_Sort                         0x0800323d   Thumb Code   368  sprites_logical.o(i.SpritesTree_Sort)
    Sprites_Awaken                           0x080033b1   Thumb Code    64  sprites_logical.o(i.Sprites_Awaken)
    Sprites_BT_GetChild                      0x080033f9   Thumb Code    50  sprites_behaviortree.o(i.Sprites_BT_GetChild)
    Sprites_BT_LCNodeCreate                  0x0800342b   Thumb Code    30  sprites_behaviortree.o(i.Sprites_BT_LCNodeCreate)
    Sprites_Exec                             0x08003449   Thumb Code    56  sprites_logical.o(i.Sprites_Exec)
    Sprites_ObjectCreate                     0x08003485   Thumb Code   228  sprites_logical.o(i.Sprites_ObjectCreate)
    Sprites_SingleRender                     0x08003571   Thumb Code  1328  sprites_logical.o(i.Sprites_SingleRender)
    Sprites_SingleUpdate                     0x08003aa1   Thumb Code    44  sprites_logical.o(i.Sprites_SingleUpdate)
    Sprites_Sleep                            0x08003acd   Thumb Code    64  sprites_logical.o(i.Sprites_Sleep)
    Sprites_collisionWallValue               0x08003b15   Thumb Code    20  sprites_logical.o(i.Sprites_collisionWallValue)
    SysTick_Handler                          0x08003b29   Thumb Code     2  stm32f10x_it.o(i.SysTick_Handler)
    SystemInit                               0x08003b2d   Thumb Code    78  system_stm32f10x.o(i.SystemInit)
    TIM2_IRQHandler                          0x08003b8d   Thumb Code    36  main.o(i.TIM2_IRQHandler)
    TIM_ClearITPendingBit                    0x08003bb9   Thumb Code     6  stm32f10x_tim.o(i.TIM_ClearITPendingBit)
    TIM_Cmd                                  0x08003bbf   Thumb Code    24  stm32f10x_tim.o(i.TIM_Cmd)
    TIM_GetCounter                           0x08003bd7   Thumb Code     6  stm32f10x_tim.o(i.TIM_GetCounter)
    TIM_GetITStatus                          0x08003bdd   Thumb Code    34  stm32f10x_tim.o(i.TIM_GetITStatus)
    TIM_ITConfig                             0x08003bff   Thumb Code    18  stm32f10x_tim.o(i.TIM_ITConfig)
    TIM_SetCounter                           0x08003c11   Thumb Code     4  stm32f10x_tim.o(i.TIM_SetCounter)
    TIM_TimeBaseInit                         0x08003c15   Thumb Code   122  stm32f10x_tim.o(i.TIM_TimeBaseInit)
    Texture_Add                              0x08003cb9   Thumb Code   102  texturemapper.o(i.Texture_Add)
    Texture_Extract                          0x08003d25   Thumb Code   122  texturemapper.o(i.Texture_Extract)
    Texture_GetTexture                       0x08003da1   Thumb Code    20  texturemapper.o(i.Texture_GetTexture)
    TreeDelete                               0x08003db9   Thumb Code   270  rb_tree.o(i.TreeDelete)
    UsageFault_Handler                       0x08003ec7   Thumb Code     4  stm32f10x_it.o(i.UsageFault_Handler)
    WorldMap_Add                             0x08003ecd   Thumb Code    82  worldmap.o(i.WorldMap_Add)
    WorldMap_Extract                         0x08003f29   Thumb Code    42  worldmap.o(i.WorldMap_Extract)
    WorldMap_GetCurrentMapPos                0x08003f55   Thumb Code     6  worldmap.o(i.WorldMap_GetCurrentMapPos)
    WorldMap_GetWorldMap                     0x08003f61   Thumb Code    20  worldmap.o(i.WorldMap_GetWorldMap)
    __ARM_fpclassify                         0x08003f79   Thumb Code    40  fpclassify.o(i.__ARM_fpclassify)
    __ieee754_rem_pio2                       0x08003fa1   Thumb Code   828  rred.o(i.__ieee754_rem_pio2)
    __kernel_poly                            0x08004329   Thumb Code   170  poly.o(i.__kernel_poly)
    __kernel_tan                             0x080043d5   Thumb Code   586  tan_i.o(i.__kernel_tan)
    __mathlib_dbl_infnan                     0x08004651   Thumb Code     6  dunder.o(i.__mathlib_dbl_infnan)
    __mathlib_dbl_invalid                    0x08004657   Thumb Code    12  dunder.o(i.__mathlib_dbl_invalid)
    __mathlib_dbl_underflow                  0x08004665   Thumb Code    10  dunder.o(i.__mathlib_dbl_underflow)
    bitToByte                                0x08004675   Thumb Code    34  bit_operate.o(i.bitToByte)
    brotherNode                              0x08004697   Thumb Code    30  rb_tree.o(i.brotherNode)
    c_free                                   0x080046b5   Thumb Code    90  heap_solution_1.o(i.c_free)
    c_malloc                                 0x08004715   Thumb Code   162  heap_solution_1.o(i.c_malloc)
    c_realloc                                0x080047bd   Thumb Code   336  heap_solution_1.o(i.c_realloc)
    calculate_crc8                           0x0800490d   Thumb Code    56  heap_solution_1.o(i.calculate_crc8)
    createNode                               0x08004945   Thumb Code    38  rb_tree.o(i.createNode)
    frame_capture                            0x0800496d   Thumb Code    12  main.o(i.frame_capture)
    frm                                      0x0800497d   Thumb Code    54  main.o(i.frm)
    func2                                    0x080049b9   Thumb Code    54  main.o(i.func2)
    function                                 0x080049f9   Thumb Code   130  main.o(i.function)
    function2                                0x08004a8d   Thumb Code   130  main.o(i.function2)
    function3                                0x08004b1d   Thumb Code   136  main.o(i.function3)
    function4                                0x08004bbd   Thumb Code   140  main.o(i.function4)
    getRoot                                  0x08004c65   Thumb Code    22  rb_tree.o(i.getRoot)
    init_timer                               0x08004c7b   Thumb Code    96  main.o(i.init_timer)
    leftRotate                               0x08004cdb   Thumb Code    52  rb_tree.o(i.leftRotate)
    main                                     0x08004d11   Thumb Code  1732  main.o(i.main)
    memory_pool_init                         0x08005405   Thumb Code   108  heap_solution_1.o(i.memory_pool_init)
    rbDelete                                 0x08005479   Thumb Code    18  rb_tree.o(i.rbDelete)
    rbInsert                                 0x0800548b   Thumb Code   118  rb_tree.o(i.rbInsert)
    rightRotate                              0x08005501   Thumb Code    52  rb_tree.o(i.rightRotate)
    rotateLeft                               0x08005535   Thumb Code    34  rb_tree.o(i.rotateLeft)
    rotateRight                              0x08005557   Thumb Code    34  rb_tree.o(i.rotateRight)
    search                                   0x08005579   Thumb Code    34  rb_tree.o(i.search)
    sqrt                                     0x0800559b   Thumb Code    76  sqrt.o(i.sqrt)
    tan                                      0x080055e9   Thumb Code    90  tan.o(i.tan)
    vector_Create                            0x0800564d   Thumb Code    28  vector.o(i.vector_Create)
    vector_Magnitude                         0x08005669   Thumb Code    18  vector.o(i.vector_Magnitude)
    vector_MagnitudeSquare                   0x0800567b   Thumb Code    62  vector.o(i.vector_MagnitudeSquare)
    vector_Normalize                         0x080056b9   Thumb Code   232  vector.o(i.vector_Normalize)
    vector_Scalar_Div                        0x080057a9   Thumb Code   104  vector.o(i.vector_Scalar_Div)
    verifyBlock                              0x08005819   Thumb Code    28  heap_solution_1.o(i.verifyBlock)
    __aeabi_d2f                              0x08005835   Thumb Code     0  d2f.o(x$fpl$d2f)
    _d2f                                     0x08005835   Thumb Code    98  d2f.o(x$fpl$d2f)
    __aeabi_dadd                             0x08005899   Thumb Code     0  daddsub_clz.o(x$fpl$dadd)
    _dadd                                    0x08005899   Thumb Code   332  daddsub_clz.o(x$fpl$dadd)
    __fpl_dcheck_NaN1                        0x080059e9   Thumb Code    10  dcheck1.o(x$fpl$dcheck1)
    __fpl_dcmp_Inf                           0x080059f9   Thumb Code    24  dcmpi.o(x$fpl$dcmpinf)
    __aeabi_ddiv                             0x08005a11   Thumb Code     0  ddiv.o(x$fpl$ddiv)
    _ddiv                                    0x08005a11   Thumb Code   552  ddiv.o(x$fpl$ddiv)
    __aeabi_cdcmpeq                          0x08005cc1   Thumb Code     0  deqf.o(x$fpl$deqf)
    _dcmpeq                                  0x08005cc1   Thumb Code   120  deqf.o(x$fpl$deqf)
    __aeabi_d2iz                             0x08005d39   Thumb Code     0  dfix.o(x$fpl$dfix)
    _dfix                                    0x08005d39   Thumb Code    94  dfix.o(x$fpl$dfix)
    __aeabi_i2d                              0x08005d97   Thumb Code     0  dflt_clz.o(x$fpl$dflt)
    _dflt                                    0x08005d97   Thumb Code    46  dflt_clz.o(x$fpl$dflt)
    __aeabi_ui2d                             0x08005dc5   Thumb Code     0  dflt_clz.o(x$fpl$dfltu)
    _dfltu                                   0x08005dc5   Thumb Code    38  dflt_clz.o(x$fpl$dfltu)
    __aeabi_cdcmple                          0x08005ded   Thumb Code     0  dleqf.o(x$fpl$dleqf)
    _dcmple                                  0x08005ded   Thumb Code   120  dleqf.o(x$fpl$dleqf)
    __fpl_dcmple_InfNaN                      0x08005e4f   Thumb Code     0  dleqf.o(x$fpl$dleqf)
    __aeabi_dmul                             0x08005e65   Thumb Code     0  dmul.o(x$fpl$dmul)
    _dmul                                    0x08005e65   Thumb Code   332  dmul.o(x$fpl$dmul)
    __fpl_dnaninf                            0x08005fb9   Thumb Code   156  dnaninf.o(x$fpl$dnaninf)
    __fpl_dretinf                            0x08006055   Thumb Code    12  dretinf.o(x$fpl$dretinf)
    __aeabi_cdrcmple                         0x08006061   Thumb Code     0  drleqf.o(x$fpl$drleqf)
    _drcmple                                 0x08006061   Thumb Code   108  drleqf.o(x$fpl$drleqf)
    __aeabi_drsub                            0x080060cd   Thumb Code     0  daddsub_clz.o(x$fpl$drsb)
    _drsb                                    0x080060cd   Thumb Code    22  daddsub_clz.o(x$fpl$drsb)
    _dsqrt                                   0x080060e5   Thumb Code   456  dsqrt_noumaal.o(x$fpl$dsqrt)
    __aeabi_dsub                             0x080062b1   Thumb Code     0  daddsub_clz.o(x$fpl$dsub)
    _dsub                                    0x080062b1   Thumb Code   464  daddsub_clz.o(x$fpl$dsub)
    __aeabi_fadd                             0x08006485   Thumb Code     0  faddsub_clz.o(x$fpl$fadd)
    _fadd                                    0x08006485   Thumb Code   196  faddsub_clz.o(x$fpl$fadd)
    __fpl_fcmp_Inf                           0x08006549   Thumb Code    24  fcmpi.o(x$fpl$fcmpinf)
    __aeabi_fdiv                             0x08006561   Thumb Code     0  fdiv.o(x$fpl$fdiv)
    _fdiv                                    0x08006561   Thumb Code   384  fdiv.o(x$fpl$fdiv)
    __aeabi_ui2f                             0x080066e5   Thumb Code     0  fflt_clz.o(x$fpl$ffltu)
    _ffltu                                   0x080066e5   Thumb Code    38  fflt_clz.o(x$fpl$ffltu)
    __aeabi_cfcmple                          0x0800670d   Thumb Code     0  fleqf.o(x$fpl$fleqf)
    _fcmple                                  0x0800670d   Thumb Code   104  fleqf.o(x$fpl$fleqf)
    __fpl_fcmple_InfNaN                      0x0800675f   Thumb Code     0  fleqf.o(x$fpl$fleqf)
    __fpl_fnaninf                            0x08006775   Thumb Code   140  fnaninf.o(x$fpl$fnaninf)
    __fpl_fretinf                            0x08006801   Thumb Code    10  fretinf.o(x$fpl$fretinf)
    __aeabi_cfrcmple                         0x0800680b   Thumb Code     0  frleqf.o(x$fpl$frleqf)
    _frcmple                                 0x0800680b   Thumb Code    98  frleqf.o(x$fpl$frleqf)
    __aeabi_fsub                             0x0800686d   Thumb Code     0  faddsub_clz.o(x$fpl$fsub)
    _fsub                                    0x0800686d   Thumb Code   234  faddsub_clz.o(x$fpl$fsub)
    __fpl_return_NaN                         0x08006957   Thumb Code   100  retnan.o(x$fpl$retnan)
    __ARM_scalbn                             0x080069bb   Thumb Code    92  scalbn.o(x$fpl$scalbn)
    __fpl_cmpreturn                          0x08006a17   Thumb Code    48  trapv.o(x$fpl$trapveneer)
    __I$use$fp                               0x08006a46   Number         0  usenofp.o(x$fpl$usenofp)
    floormap                                 0x08006a46   Data         576  main.o(.constdata)
    floordata_24x24                          0x08006c86   Data         180  main.o(.constdata)
    jian_16x16                               0x08006d3a   Data          32  main.o(.constdata)
    jian_8x8                                 0x08006d5a   Data           8  main.o(.constdata)
    IKUN_TieShanKao_45x45_1                  0x08006d62   Data         270  animation.o(.constdata)
    IKUN_TieShanKao_45x45_1_shadow           0x08006e70   Data         270  animation.o(.constdata)
    IKUN_TieShanKao_45x45_2                  0x08006f7e   Data         266  animation.o(.constdata)
    IKUN_TieShanKao_45x45_2_shadow           0x08007088   Data         270  animation.o(.constdata)
    IKUN_TieShanKao_45x45_3                  0x08007196   Data         266  animation.o(.constdata)
    IKUN_TieShanKao_45x45_3_shadow           0x080072a0   Data         270  animation.o(.constdata)
    IKUN_TieShanKao_45x45_4                  0x080073ae   Data         270  animation.o(.constdata)
    IKUN_TieShanKao_45x45_4_shadow           0x080074bc   Data         270  animation.o(.constdata)
    IKUN_TieShanKao_45x45_5                  0x080075ca   Data         270  animation.o(.constdata)
    IKUN_TieShanKao_45x45_5_shadow           0x080076d8   Data         270  animation.o(.constdata)
    IKUN_TieShanKao_45x45_6                  0x080077e6   Data         270  animation.o(.constdata)
    IKUN_TieShanKao_45x45_6_shadow           0x080078f4   Data         270  animation.o(.constdata)
    IKUN_TieShanKao_45x45_7                  0x08007a02   Data         270  animation.o(.constdata)
    IKUN_TieShanKao_45x45_7_shadow           0x08007b10   Data         270  animation.o(.constdata)
    IKUN_TieShanKao_45x45_8                  0x08007c1e   Data         270  animation.o(.constdata)
    IKUN_TieShanKao_45x45_8_shadow           0x08007d2c   Data         270  animation.o(.constdata)
    IKUN_TieShanKao_45x45_9                  0x08007e3a   Data         270  animation.o(.constdata)
    IKUN_TieShanKao_45x45_9_shadow           0x08007f48   Data         270  animation.o(.constdata)
    IKUN_TieShanKao_45x45_10                 0x08008056   Data         270  animation.o(.constdata)
    IKUN_TieShanKao_45x45_10_shadow          0x08008164   Data         270  animation.o(.constdata)
    IKUN_TieShanKao_45x45_11                 0x08008272   Data         270  animation.o(.constdata)
    IKUN_TieShanKao_45x45_11_shadow          0x08008380   Data         270  animation.o(.constdata)
    IKUN_TieShanKao_45x45_12                 0x0800848e   Data         270  animation.o(.constdata)
    IKUN_TieShanKao_45x45_12_shadow          0x0800859c   Data         270  animation.o(.constdata)
    kun2                                     0x080086aa   Data         288  animation.o(.constdata)
    dun                                      0x080087ca   Data         180  animation.o(.constdata)
    dun2                                     0x0800887e   Data         180  animation.o(.constdata)
    dun3                                     0x08008932   Data         180  animation.o(.constdata)
    dun4                                     0x080089e6   Data         180  animation.o(.constdata)
    dun5                                     0x08008a9a   Data         180  animation.o(.constdata)
    dun6                                     0x08008b4e   Data         180  animation.o(.constdata)
    dun7                                     0x08008c02   Data         180  animation.o(.constdata)
    dun8                                     0x08008cb6   Data         180  animation.o(.constdata)
    dun9                                     0x08008d6a   Data         180  animation.o(.constdata)
    dun_shadown                              0x08008e1e   Data         180  animation.o(.constdata)
    gun_48x48_1                              0x08008ed2   Data         288  animation.o(.constdata)
    gun_48x48_1_shadown                      0x08008ff2   Data         288  animation.o(.constdata)
    gun_48x48_2                              0x08009112   Data         288  animation.o(.constdata)
    gun_48x48_2_shadown                      0x08009232   Data         288  animation.o(.constdata)
    gun_48x48_3                              0x08009352   Data         288  animation.o(.constdata)
    gun_48x48_3_shadown                      0x08009472   Data         288  animation.o(.constdata)
    gun_48x48_4                              0x08009592   Data         288  animation.o(.constdata)
    gun_48x48_4_shadown                      0x080096b2   Data         288  animation.o(.constdata)
    OLED_F8x16                               0x080097d2   Data        1520  mistink_font.o(.constdata)
    Region$$Table$$Base                      0x08009ef0   Number         0  anon$$obj.o(Region$$Table)
    Region$$Table$$Limit                     0x08009f10   Number         0  anon$$obj.o(Region$$Table)
    displayer                                0x20000000   Data           4  main.o(.data)
    frame_count                              0x20000004   Data           4  main.o(.data)
    fps                                      0x20000008   Data           4  main.o(.data)
    TestMap2                                 0x2000000c   Data         576  main.o(.data)
    Spritestemp                              0x2000024c   Data           4  main.o(.data)
    Spritedun                                0x20000250   Data           4  main.o(.data)
    iskunsleep                               0x20000254   Data           4  main.o(.data)
    isdunsleep                               0x20000258   Data           4  main.o(.data)
    isover                                   0x2000025c   Data           4  main.o(.data)
    FloorTreeManager                         0x20000260   Data           4  camera.o(.data)
    CeliTreeManager                          0x20000264   Data           4  camera.o(.data)
    SSR_CoreTree                             0x20000268   Data           4  camera.o(.data)
    Canvas_Mode                              0x2000026c   Data           4  canvas.o(.data)
    Screen_Canvas                            0x20000270   Data           4  canvas.o(.data)
    Init_flag                                0x20000274   Data           1  heap_solution_1.o(.data)
    TextureMapper_Header                     0x2000027c   Data           4  texturemapper.o(.data)
    WorldMap_Header                          0x20000280   Data           4  worldmap.o(.data)
    WorldMap_Pos                             0x20000284   Data           4  worldmap.o(.data)
    DeltaTime                                0x20000288   Data           4  frameratestrategy.o(.data)
    Sprites_Header                           0x2000028c   Data           4  sprites_animation.o(.data)
    Sprites_Count                            0x20000290   Data           4  sprites_animation.o(.data)
    SpritesTree                              0x20000294   Data           4  sprites_logical.o(.data)
    SpritesSleepTree                         0x20000298   Data           4  sprites_logical.o(.data)
    __libspace_start                         0x20002aa0   Data          96  libspace.o(.bss)
    __temporary_stack_top$libspace           0x20002b00   Data           0  libspace.o(.bss)



==============================================================================

Memory Map of the image

  Image Entry point : 0x080000ed

  Load Region LR_IROM1 (Base: 0x08000000, Size: 0x0000a1b0, Max: 0x00010000, ABSOLUTE, COMPRESSED[0x00009f68])

    Execution Region ER_IROM1 (Exec base: 0x08000000, Load base: 0x08000000, Size: 0x00009f10, Max: 0x00010000, ABSOLUTE)

    Exec Addr    Load Addr    Size         Type   Attr      Idx    E Section Name        Object

    0x08000000   0x08000000   0x000000ec   Data   RO            3    RESET               startup_stm32f10x_md.o
    0x080000ec   0x080000ec   0x00000008   Code   RO         5086  * !!!main             c_w.l(__main.o)
    0x080000f4   0x080000f4   0x00000034   Code   RO         5404    !!!scatter          c_w.l(__scatter.o)
    0x08000128   0x08000128   0x0000005a   Code   RO         5402    !!dczerorl2         c_w.l(__dczerorl2.o)
    0x08000182   0x08000182   0x00000002   PAD
    0x08000184   0x08000184   0x0000001c   Code   RO         5406    !!handler_zi        c_w.l(__scatter_zi.o)
    0x080001a0   0x080001a0   0x00000000   Code   RO         5081    .ARM.Collect$$_printf_percent$$00000000  c_w.l(_printf_percent.o)
    0x080001a0   0x080001a0   0x00000006   Code   RO         5080    .ARM.Collect$$_printf_percent$$00000009  c_w.l(_printf_d.o)
    0x080001a6   0x080001a6   0x00000004   Code   RO         5179    .ARM.Collect$$_printf_percent$$00000017  c_w.l(_printf_percent_end.o)
    0x080001aa   0x080001aa   0x00000002   Code   RO         5269    .ARM.Collect$$libinit$$00000000  c_w.l(libinit.o)
    0x080001ac   0x080001ac   0x00000000   Code   RO         5275    .ARM.Collect$$libinit$$00000002  c_w.l(libinit2.o)
    0x080001ac   0x080001ac   0x00000000   Code   RO         5277    .ARM.Collect$$libinit$$00000004  c_w.l(libinit2.o)
    0x080001ac   0x080001ac   0x00000000   Code   RO         5280    .ARM.Collect$$libinit$$0000000A  c_w.l(libinit2.o)
    0x080001ac   0x080001ac   0x00000000   Code   RO         5282    .ARM.Collect$$libinit$$0000000C  c_w.l(libinit2.o)
    0x080001ac   0x080001ac   0x00000000   Code   RO         5284    .ARM.Collect$$libinit$$0000000E  c_w.l(libinit2.o)
    0x080001ac   0x080001ac   0x00000000   Code   RO         5287    .ARM.Collect$$libinit$$00000011  c_w.l(libinit2.o)
    0x080001ac   0x080001ac   0x00000000   Code   RO         5289    .ARM.Collect$$libinit$$00000013  c_w.l(libinit2.o)
    0x080001ac   0x080001ac   0x00000000   Code   RO         5291    .ARM.Collect$$libinit$$00000015  c_w.l(libinit2.o)
    0x080001ac   0x080001ac   0x00000000   Code   RO         5293    .ARM.Collect$$libinit$$00000017  c_w.l(libinit2.o)
    0x080001ac   0x080001ac   0x00000000   Code   RO         5295    .ARM.Collect$$libinit$$00000019  c_w.l(libinit2.o)
    0x080001ac   0x080001ac   0x00000000   Code   RO         5297    .ARM.Collect$$libinit$$0000001B  c_w.l(libinit2.o)
    0x080001ac   0x080001ac   0x00000000   Code   RO         5299    .ARM.Collect$$libinit$$0000001D  c_w.l(libinit2.o)
    0x080001ac   0x080001ac   0x00000000   Code   RO         5301    .ARM.Collect$$libinit$$0000001F  c_w.l(libinit2.o)
    0x080001ac   0x080001ac   0x00000000   Code   RO         5303    .ARM.Collect$$libinit$$00000021  c_w.l(libinit2.o)
    0x080001ac   0x080001ac   0x00000000   Code   RO         5305    .ARM.Collect$$libinit$$00000023  c_w.l(libinit2.o)
    0x080001ac   0x080001ac   0x00000000   Code   RO         5307    .ARM.Collect$$libinit$$00000025  c_w.l(libinit2.o)
    0x080001ac   0x080001ac   0x00000000   Code   RO         5311    .ARM.Collect$$libinit$$0000002C  c_w.l(libinit2.o)
    0x080001ac   0x080001ac   0x00000000   Code   RO         5313    .ARM.Collect$$libinit$$0000002E  c_w.l(libinit2.o)
    0x080001ac   0x080001ac   0x00000000   Code   RO         5315    .ARM.Collect$$libinit$$00000030  c_w.l(libinit2.o)
    0x080001ac   0x080001ac   0x00000000   Code   RO         5317    .ARM.Collect$$libinit$$00000032  c_w.l(libinit2.o)
    0x080001ac   0x080001ac   0x00000002   Code   RO         5318    .ARM.Collect$$libinit$$00000033  c_w.l(libinit2.o)
    0x080001ae   0x080001ae   0x00000002   Code   RO         5342    .ARM.Collect$$libshutdown$$00000000  c_w.l(libshutdown.o)
    0x080001b0   0x080001b0   0x00000000   Code   RO         5355    .ARM.Collect$$libshutdown$$00000002  c_w.l(libshutdown2.o)
    0x080001b0   0x080001b0   0x00000000   Code   RO         5357    .ARM.Collect$$libshutdown$$00000004  c_w.l(libshutdown2.o)
    0x080001b0   0x080001b0   0x00000000   Code   RO         5360    .ARM.Collect$$libshutdown$$00000007  c_w.l(libshutdown2.o)
    0x080001b0   0x080001b0   0x00000000   Code   RO         5363    .ARM.Collect$$libshutdown$$0000000A  c_w.l(libshutdown2.o)
    0x080001b0   0x080001b0   0x00000000   Code   RO         5365    .ARM.Collect$$libshutdown$$0000000C  c_w.l(libshutdown2.o)
    0x080001b0   0x080001b0   0x00000000   Code   RO         5368    .ARM.Collect$$libshutdown$$0000000F  c_w.l(libshutdown2.o)
    0x080001b0   0x080001b0   0x00000002   Code   RO         5369    .ARM.Collect$$libshutdown$$00000010  c_w.l(libshutdown2.o)
    0x080001b2   0x080001b2   0x00000000   Code   RO         5170    .ARM.Collect$$rtentry$$00000000  c_w.l(__rtentry.o)
    0x080001b2   0x080001b2   0x00000000   Code   RO         5230    .ARM.Collect$$rtentry$$00000002  c_w.l(__rtentry2.o)
    0x080001b2   0x080001b2   0x00000006   Code   RO         5242    .ARM.Collect$$rtentry$$00000004  c_w.l(__rtentry4.o)
    0x080001b8   0x080001b8   0x00000000   Code   RO         5232    .ARM.Collect$$rtentry$$00000009  c_w.l(__rtentry2.o)
    0x080001b8   0x080001b8   0x00000004   Code   RO         5233    .ARM.Collect$$rtentry$$0000000A  c_w.l(__rtentry2.o)
    0x080001bc   0x080001bc   0x00000000   Code   RO         5235    .ARM.Collect$$rtentry$$0000000C  c_w.l(__rtentry2.o)
    0x080001bc   0x080001bc   0x00000008   Code   RO         5236    .ARM.Collect$$rtentry$$0000000D  c_w.l(__rtentry2.o)
    0x080001c4   0x080001c4   0x00000002   Code   RO         5272    .ARM.Collect$$rtexit$$00000000  c_w.l(rtexit.o)
    0x080001c6   0x080001c6   0x00000000   Code   RO         5322    .ARM.Collect$$rtexit$$00000002  c_w.l(rtexit2.o)
    0x080001c6   0x080001c6   0x00000004   Code   RO         5323    .ARM.Collect$$rtexit$$00000003  c_w.l(rtexit2.o)
    0x080001ca   0x080001ca   0x00000006   Code   RO         5324    .ARM.Collect$$rtexit$$00000004  c_w.l(rtexit2.o)
    0x080001d0   0x080001d0   0x00000040   Code   RO            4    .text               startup_stm32f10x_md.o
    0x08000210   0x08000210   0x00000028   Code   RO         5054    .text               c_w.l(noretval__2sprintf.o)
    0x08000238   0x08000238   0x00000068   Code   RO         5056    .text               c_w.l(__printf.o)
    0x080002a0   0x080002a0   0x00000078   Code   RO         5058    .text               c_w.l(_printf_dec.o)
    0x08000318   0x08000318   0x0000003e   Code   RO         5082    .text               c_w.l(strlen.o)
    0x08000356   0x08000356   0x00000006   Code   RO         5084    .text               c_w.l(heapauxi.o)
    0x0800035c   0x0800035c   0x00000016   Code   RO         5171    .text               c_w.l(_rserrno.o)
    0x08000372   0x08000372   0x000000b2   Code   RO         5173    .text               c_w.l(_printf_intcommon.o)
    0x08000424   0x08000424   0x00000030   Code   RO         5175    .text               c_w.l(_printf_char_common.o)
    0x08000454   0x08000454   0x0000000a   Code   RO         5177    .text               c_w.l(_sputc.o)
    0x0800045e   0x0800045e   0x00000002   PAD
    0x08000460   0x08000460   0x00000008   Code   RO         5247    .text               c_w.l(rt_errno_addr_intlibspace.o)
    0x08000468   0x08000468   0x00000008   Code   RO         5257    .text               c_w.l(libspace.o)
    0x08000470   0x08000470   0x0000004a   Code   RO         5260    .text               c_w.l(sys_stackheap_outer.o)
    0x080004ba   0x080004ba   0x00000012   Code   RO         5262    .text               c_w.l(exit.o)
    0x080004cc   0x080004cc   0x0000000c   Code   RO         5334    .text               c_w.l(sys_exit.o)
    0x080004d8   0x080004d8   0x00000002   Code   RO         5345    .text               c_w.l(use_no_semi.o)
    0x080004da   0x080004da   0x00000000   Code   RO         5347    .text               c_w.l(indicate_semi.o)
    0x080004da   0x080004da   0x000000c0   Code   RO         3902    i.AdjustInsert      rb_tree.o
    0x0800059a   0x0800059a   0x00000002   PAD
    0x0800059c   0x0800059c   0x00000068   Code   RO         3223    i.BT_func           main.o
    0x08000604   0x08000604   0x00000040   Code   RO         3224    i.BT_func2          main.o
    0x08000644   0x08000644   0x0000002e   Code   RO         4886    i.Bit_Modification  mistink.o
    0x08000672   0x08000672   0x0000002a   Code   RO         3503    i.Bit_Modify_Within_Byte  bit_operate.o
    0x0800069c   0x0800069c   0x00000004   Code   RO         3427    i.BusFault_Handler  stm32f10x_it.o
    0x080006a0   0x080006a0   0x0000001e   Code   RO         3539    i.Camera_DeepBuffer_Read  camera.o
    0x080006be   0x080006be   0x00000026   Code   RO         3540    i.Camera_DeepBuffer_Write  camera.o
    0x080006e4   0x080006e4   0x000001d0   Code   RO         3542    i.Camera_Init       camera.o
    0x080008b4   0x080008b4   0x000004b2   Code   RO         3546    i.Camera_Render     camera.o
    0x08000d66   0x08000d66   0x00000002   PAD
    0x08000d68   0x08000d68   0x0000002c   Code   RO         3789    i.Canvas_GetUnit    canvas.o
    0x08000d94   0x08000d94   0x00000048   Code   RO         3790    i.Canvas_Init       canvas.o
    0x08000ddc   0x08000ddc   0x0000006a   Code   RO         3791    i.Canvas_PixelOperate  canvas.o
    0x08000e46   0x08000e46   0x00000002   PAD
    0x08000e48   0x08000e48   0x00000024   Code   RO         3793    i.Canvas_SetCanvasModeToRedirect  canvas.o
    0x08000e6c   0x08000e6c   0x00000008   Code   RO         3552    i.Celi_DefaultRender  camera.o
    0x08000e74   0x08000e74   0x00000028   Code   RO         3841    i.CeruleanBird_Init  ceruleanbird.o
    0x08000e9c   0x08000e9c   0x00000002   Code   RO         3428    i.DebugMon_Handler  stm32f10x_it.o
    0x08000e9e   0x08000e9e   0x00000046   Code   RO         3903    i.DeleteBlackLeafNodeWithRedSibling  rb_tree.o
    0x08000ee4   0x08000ee4   0x00000046   Code   RO         3904    i.DeleteNodeWithOneChild  rb_tree.o
    0x08000f2a   0x08000f2a   0x00000020   Code   RO         3905    i.DeleteRedLeafNode  rb_tree.o
    0x08000f4a   0x08000f4a   0x000000b4   Code   RO         3906    i.DeleteWhenHasRedNephews  rb_tree.o
    0x08000ffe   0x08000ffe   0x00000004   Code   RO         4286    i.EngineFault_ExceptionEnumParam_Handle  enginefault.o
    0x08001002   0x08001002   0x00000004   Code   RO         4287    i.EngineFault_IllegalAccess_Handle  enginefault.o
    0x08001006   0x08001006   0x00000004   Code   RO         4288    i.EngineFault_IllegalFree_Handle  enginefault.o
    0x0800100a   0x0800100a   0x00000004   Code   RO         4290    i.EngineFault_NullPointerGuard_Handle  enginefault.o
    0x0800100e   0x0800100e   0x000000d4   Code   RO         4722    i.ExecuteBehaviorTree  sprites_behaviortree.o
    0x080010e2   0x080010e2   0x00000040   Code   RO         3907    i.FindTargetNode    rb_tree.o
    0x08001122   0x08001122   0x00000062   Code   RO         3558    i.Floor_DefaultRender  camera.o
    0x08001184   0x08001184   0x00000050   Code   RO         4888    i.Font_Read         mistink.o
    0x080011d4   0x080011d4   0x00000050   Code   RO         4352    i.FrmRS_GetFrmRate  frameratestrategy.o
    0x08001224   0x08001224   0x00000078   Code   RO         4355    i.FrmRS_deltaTime_Init  frameratestrategy.o
    0x0800129c   0x0800129c   0x000000b0   Code   RO         4356    i.FrmRS_deltaTime_Trigger  frameratestrategy.o
    0x0800134c   0x0800134c   0x00000116   Code   RO         1347    i.GPIO_Init         stm32f10x_gpio.o
    0x08001462   0x08001462   0x00000004   Code   RO         1354    i.GPIO_ResetBits    stm32f10x_gpio.o
    0x08001466   0x08001466   0x00000004   Code   RO         1355    i.GPIO_SetBits      stm32f10x_gpio.o
    0x0800146a   0x0800146a   0x0000001e   Code   RO         3908    i.HandleNodeWithTwoChildren  rb_tree.o
    0x08001488   0x08001488   0x00000004   Code   RO         3429    i.HardFault_Handler  stm32f10x_it.o
    0x0800148c   0x0800148c   0x00000030   Code   RO         4889    i.M_Int             mistink.o
    0x080014bc   0x080014bc   0x000000d8   Code   RO         4891    i.M_String          mistink.o
    0x08001594   0x08001594   0x00000004   Code   RO         3430    i.MemManage_Handler  stm32f10x_it.o
    0x08001598   0x08001598   0x00000010   Code   RO         4972    i.MistinkDisplayer_BufferOutput  mistink_displayer.o
    0x080015a8   0x080015a8   0x0000005c   Code   RO         4974    i.MistinkDisplayer_Create  mistink_displayer.o
    0x08001604   0x08001604   0x00000022   Code   RO         4892    i.MistinkOP_BufferReset  mistink.o
    0x08001626   0x08001626   0x0000000c   Code   RO         4893    i.MistinkOP_GetBufferAPI  mistink.o
    0x08001632   0x08001632   0x0000005c   Code   RO         4894    i.MistinkPixel_Operate  mistink.o
    0x0800168e   0x0800168e   0x00000002   Code   RO         3431    i.NMI_Handler       stm32f10x_it.o
    0x08001690   0x08001690   0x00000070   Code   RO          137    i.NVIC_Init         misc.o
    0x08001700   0x08001700   0x0000000c   Code   RO         3909    i.NodeColor         rb_tree.o
    0x0800170c   0x0800170c   0x0000004e   Code   RO         5002    i.OLED_BufferOutput  m_stm32f103c8t6.o
    0x0800175a   0x0800175a   0x00000040   Code   RO         5003    i.OLED_Clear        m_stm32f103c8t6.o
    0x0800179a   0x0800179a   0x00000002   PAD
    0x0800179c   0x0800179c   0x000000f4   Code   RO         5004    i.OLED_Init         m_stm32f103c8t6.o
    0x08001890   0x08001890   0x000000b4   Code   RO         5005    i.OLED_Port_Init    m_stm32f103c8t6.o
    0x08001944   0x08001944   0x00000058   Code   RO         5006    i.OLED_WR_Byte      m_stm32f103c8t6.o
    0x0800199c   0x0800199c   0x00000002   Code   RO         3432    i.PendSV_Handler    stm32f10x_it.o
    0x0800199e   0x0800199e   0x00000002   PAD
    0x080019a0   0x080019a0   0x00000020   Code   RO         1775    i.RCC_APB1PeriphClockCmd  stm32f10x_rcc.o
    0x080019c0   0x080019c0   0x00000020   Code   RO         1777    i.RCC_APB2PeriphClockCmd  stm32f10x_rcc.o
    0x080019e0   0x080019e0   0x00000050   Code   RO         3225    i.SBT_ExecuteHandle  main.o
    0x08001a30   0x08001a30   0x00000094   Code   RO         3226    i.SBT_ExecuteHandle2  main.o
    0x08001ac4   0x08001ac4   0x000001c0   Code   RO         3227    i.SBT_ExecuteHandle_4  main.o
    0x08001c84   0x08001c84   0x00000040   Code   RO         3228    i.SBT_ExecuteHandle_IT  main.o
    0x08001cc4   0x08001cc4   0x00000010   Code   RO         3229    i.SBT_ExecuteHandle_kun  main.o
    0x08001cd4   0x08001cd4   0x00000034   Code   RO         3230    i.SIT_MapIndexHandle  main.o
    0x08001d08   0x08001d08   0x00000018   Code   RO         2263    i.SPI_Cmd           stm32f10x_spi.o
    0x08001d20   0x08001d20   0x00000012   Code   RO         2271    i.SPI_I2S_GetFlagStatus  stm32f10x_spi.o
    0x08001d32   0x08001d32   0x00000004   Code   RO         2275    i.SPI_I2S_SendData  stm32f10x_spi.o
    0x08001d36   0x08001d36   0x0000003c   Code   RO         2276    i.SPI_Init          stm32f10x_spi.o
    0x08001d72   0x08001d72   0x0000001a   Code   RO         3564    i.SSRAnim_Exec      camera.o
    0x08001d8c   0x08001d8c   0x00000144   Code   RO         3565    i.SSRAnim_FrmAdd    camera.o
    0x08001ed0   0x08001ed0   0x00000096   Code   RO         3566    i.SSRAnim_FrmExtract  camera.o
    0x08001f66   0x08001f66   0x00000002   PAD
    0x08001f68   0x08001f68   0x000000b4   Code   RO         3567    i.SSRAnim_ManagerCreate  camera.o
    0x0800201c   0x0800201c   0x000000cc   Code   RO         3568    i.SSRAnim_Render    camera.o
    0x080020e8   0x080020e8   0x00000018   Code   RO         3570    i.SSRAnim_RenderEnable  camera.o
    0x08002100   0x08002100   0x0000002c   Code   RO         3571    i.SSRAnim_ResetSingle  camera.o
    0x0800212c   0x0800212c   0x00000016   Code   RO         3572    i.SSRAnim_SetPos    camera.o
    0x08002142   0x08002142   0x00000002   PAD
    0x08002144   0x08002144   0x000000b4   Code   RO         3573    i.SSRAnim_Update    camera.o
    0x080021f8   0x080021f8   0x00000054   Code   RO         3574    i.SSR_SetCameraExecAnim  camera.o
    0x0800224c   0x0800224c   0x00000002   Code   RO         3433    i.SVC_Handler       stm32f10x_it.o
    0x0800224e   0x0800224e   0x00000008   Code   RO           24    i.SetSysClock       system_stm32f10x.o
    0x08002256   0x08002256   0x00000002   PAD
    0x08002258   0x08002258   0x000000e0   Code   RO           25    i.SetSysClockTo72   system_stm32f10x.o
    0x08002338   0x08002338   0x0000004c   Code   RO         4397    i.SpritesAnim_CreateManager  sprites_animation.o
    0x08002384   0x08002384   0x0000013c   Code   RO         4398    i.SpritesAnim_CreateNewChain  sprites_animation.o
    0x080024c0   0x080024c0   0x000000b8   Code   RO         4400    i.SpritesAnim_ExtractFrmData  sprites_animation.o
    0x08002578   0x08002578   0x00000148   Code   RO         4405    i.SpritesAnim_InsertNewFrm  sprites_animation.o
    0x080026c0   0x080026c0   0x00000012   Code   RO         4407    i.SpritesAnim_SetAnimType  sprites_animation.o
    0x080026d2   0x080026d2   0x00000044   Code   RO         4409    i.SpritesAnim_SwitchChain  sprites_animation.o
    0x08002716   0x08002716   0x00000002   PAD
    0x08002718   0x08002718   0x0000008c   Code   RO         4412    i.SpritesAnim_Update  sprites_animation.o
    0x080027a4   0x080027a4   0x00000028   Code   RO         4723    i.SpritesBT_Action  sprites_behaviortree.o
    0x080027cc   0x080027cc   0x00000090   Code   RO         4728    i.SpritesBT_BusExecute  sprites_behaviortree.o
    0x0800285c   0x0800285c   0x00000058   Code   RO         4730    i.SpritesBT_Init    sprites_behaviortree.o
    0x080028b4   0x080028b4   0x00000038   Code   RO         4732    i.SpritesBT_MountToRoot  sprites_behaviortree.o
    0x080028ec   0x080028ec   0x00000026   Code   RO         4510    i.SpritesData_GetPos  sprites_logical.o
    0x08002912   0x08002912   0x00000002   PAD
    0x08002914   0x08002914   0x00000150   Code   RO         4735    i.SpritesIT_Add     sprites_behaviortree.o
    0x08002a64   0x08002a64   0x00000038   Code   RO         4737    i.SpritesIT_Enable  sprites_behaviortree.o
    0x08002a9c   0x08002a9c   0x000000d8   Code   RO         4738    i.SpritesIT_Exec    sprites_behaviortree.o
    0x08002b74   0x08002b74   0x00000036   Code   RO         4739    i.SpritesIT_GetITNode  sprites_behaviortree.o
    0x08002baa   0x08002baa   0x000000aa   Code   RO         4740    i.SpritesIT_RBStorageStrategyCreate  sprites_behaviortree.o
    0x08002c54   0x08002c54   0x00000088   Code   RO         4741    i.SpritesIT_Register  sprites_behaviortree.o
    0x08002cdc   0x08002cdc   0x000000f0   Code   RO         4516    i.SpritesMov_Forward  sprites_logical.o
    0x08002dcc   0x08002dcc   0x00000104   Code   RO         4518    i.SpritesMov_Left   sprites_logical.o
    0x08002ed0   0x08002ed0   0x00000104   Code   RO         4519    i.SpritesMov_Right  sprites_logical.o
    0x08002fd4   0x08002fd4   0x0000007c   Code   RO         4520    i.SpritesMov_SetDir  sprites_logical.o
    0x08003050   0x08003050   0x0000001e   Code   RO         4522    i.SpritesMov_SetDirWithCamera  sprites_logical.o
    0x0800306e   0x0800306e   0x00000020   Code   RO         4523    i.SpritesMov_SetPosToCamera  sprites_logical.o
    0x0800308e   0x0800308e   0x00000082   Code   RO         4744    i.SpritesPhased_Exec  sprites_behaviortree.o
    0x08003110   0x08003110   0x00000016   Code   RO         4524    i.SpritesPriv_Add   sprites_logical.o
    0x08003126   0x08003126   0x0000000c   Code   RO         4525    i.SpritesPriv_Get   sprites_logical.o
    0x08003132   0x08003132   0x0000000c   Code   RO         3231    i.SpritesPrivateFreeHandle  main.o
    0x0800313e   0x0800313e   0x00000002   PAD
    0x08003140   0x08003140   0x0000004c   Code   RO         4529    i.SpritesTree_Add   sprites_logical.o
    0x0800318c   0x0800318c   0x0000006c   Code   RO         4530    i.SpritesTree_Init  sprites_logical.o
    0x080031f8   0x080031f8   0x00000044   Code   RO         4531    i.SpritesTree_NodeExtract  sprites_logical.o
    0x0800323c   0x0800323c   0x00000174   Code   RO         4532    i.SpritesTree_Sort  sprites_logical.o
    0x080033b0   0x080033b0   0x00000048   Code   RO         4534    i.Sprites_Awaken    sprites_logical.o
    0x080033f8   0x080033f8   0x00000032   Code   RO         4746    i.Sprites_BT_GetChild  sprites_behaviortree.o
    0x0800342a   0x0800342a   0x0000001e   Code   RO         4747    i.Sprites_BT_LCNodeCreate  sprites_behaviortree.o
    0x08003448   0x08003448   0x0000003c   Code   RO         4535    i.Sprites_Exec      sprites_logical.o
    0x08003484   0x08003484   0x000000ec   Code   RO         4536    i.Sprites_ObjectCreate  sprites_logical.o
    0x08003570   0x08003570   0x00000530   Code   RO         4537    i.Sprites_SingleRender  sprites_logical.o
    0x08003aa0   0x08003aa0   0x0000002c   Code   RO         4538    i.Sprites_SingleUpdate  sprites_logical.o
    0x08003acc   0x08003acc   0x00000048   Code   RO         4539    i.Sprites_Sleep     sprites_logical.o
    0x08003b14   0x08003b14   0x00000014   Code   RO         4540    i.Sprites_collisionWallValue  sprites_logical.o
    0x08003b28   0x08003b28   0x00000002   Code   RO         3434    i.SysTick_Handler   stm32f10x_it.o
    0x08003b2a   0x08003b2a   0x00000002   PAD
    0x08003b2c   0x08003b2c   0x00000060   Code   RO           27    i.SystemInit        system_stm32f10x.o
    0x08003b8c   0x08003b8c   0x0000002c   Code   RO         3232    i.TIM2_IRQHandler   main.o
    0x08003bb8   0x08003bb8   0x00000006   Code   RO         2416    i.TIM_ClearITPendingBit  stm32f10x_tim.o
    0x08003bbe   0x08003bbe   0x00000018   Code   RO         2421    i.TIM_Cmd           stm32f10x_tim.o
    0x08003bd6   0x08003bd6   0x00000006   Code   RO         2440    i.TIM_GetCounter    stm32f10x_tim.o
    0x08003bdc   0x08003bdc   0x00000022   Code   RO         2442    i.TIM_GetITStatus   stm32f10x_tim.o
    0x08003bfe   0x08003bfe   0x00000012   Code   RO         2446    i.TIM_ITConfig      stm32f10x_tim.o
    0x08003c10   0x08003c10   0x00000004   Code   RO         2486    i.TIM_SetCounter    stm32f10x_tim.o
    0x08003c14   0x08003c14   0x000000a4   Code   RO         2492    i.TIM_TimeBaseInit  stm32f10x_tim.o
    0x08003cb8   0x08003cb8   0x0000006c   Code   RO         4034    i.Texture_Add       texturemapper.o
    0x08003d24   0x08003d24   0x0000007a   Code   RO         4038    i.Texture_Extract   texturemapper.o
    0x08003d9e   0x08003d9e   0x00000002   PAD
    0x08003da0   0x08003da0   0x00000018   Code   RO         4043    i.Texture_GetTexture  texturemapper.o
    0x08003db8   0x08003db8   0x0000010e   Code   RO         3911    i.TreeDelete        rb_tree.o
    0x08003ec6   0x08003ec6   0x00000004   Code   RO         3435    i.UsageFault_Handler  stm32f10x_it.o
    0x08003eca   0x08003eca   0x00000002   PAD
    0x08003ecc   0x08003ecc   0x0000005c   Code   RO         4193    i.WorldMap_Add      worldmap.o
    0x08003f28   0x08003f28   0x0000002a   Code   RO         4197    i.WorldMap_Extract  worldmap.o
    0x08003f52   0x08003f52   0x00000002   PAD
    0x08003f54   0x08003f54   0x0000000c   Code   RO         4201    i.WorldMap_GetCurrentMapPos  worldmap.o
    0x08003f60   0x08003f60   0x00000018   Code   RO         4203    i.WorldMap_GetWorldMap  worldmap.o
    0x08003f78   0x08003f78   0x00000028   Code   RO         5253    i.__ARM_fpclassify  m_ws.l(fpclassify.o)
    0x08003fa0   0x08003fa0   0x00000388   Code   RO         5212    i.__ieee754_rem_pio2  m_ws.l(rred.o)
    0x08004328   0x08004328   0x000000aa   Code   RO         5255    i.__kernel_poly     m_ws.l(poly.o)
    0x080043d2   0x080043d2   0x00000002   PAD
    0x080043d4   0x080043d4   0x0000027c   Code   RO         5223    i.__kernel_tan      m_ws.l(tan_i.o)
    0x08004650   0x08004650   0x00000006   Code   RO         5199    i.__mathlib_dbl_infnan  m_ws.l(dunder.o)
    0x08004656   0x08004656   0x0000000c   Code   RO         5201    i.__mathlib_dbl_invalid  m_ws.l(dunder.o)
    0x08004662   0x08004662   0x00000002   PAD
    0x08004664   0x08004664   0x00000010   Code   RO         5204    i.__mathlib_dbl_underflow  m_ws.l(dunder.o)
    0x08004674   0x08004674   0x00000022   Code   RO         3506    i.bitToByte         bit_operate.o
    0x08004696   0x08004696   0x0000001e   Code   RO         3912    i.brotherNode       rb_tree.o
    0x080046b4   0x080046b4   0x00000060   Code   RO         3856    i.c_free            heap_solution_1.o
    0x08004714   0x08004714   0x000000a8   Code   RO         3857    i.c_malloc          heap_solution_1.o
    0x080047bc   0x080047bc   0x00000150   Code   RO         3858    i.c_realloc         heap_solution_1.o
    0x0800490c   0x0800490c   0x00000038   Code   RO         3859    i.calculate_crc8    heap_solution_1.o
    0x08004944   0x08004944   0x00000026   Code   RO         3913    i.createNode        rb_tree.o
    0x0800496a   0x0800496a   0x00000002   PAD
    0x0800496c   0x0800496c   0x00000010   Code   RO         3233    i.frame_capture     main.o
    0x0800497c   0x0800497c   0x0000003c   Code   RO         3234    i.frm               main.o
    0x080049b8   0x080049b8   0x00000040   Code   RO         3235    i.func2             main.o
    0x080049f8   0x080049f8   0x00000094   Code   RO         3237    i.function          main.o
    0x08004a8c   0x08004a8c   0x00000090   Code   RO         3238    i.function2         main.o
    0x08004b1c   0x08004b1c   0x000000a0   Code   RO         3239    i.function3         main.o
    0x08004bbc   0x08004bbc   0x000000a8   Code   RO         3240    i.function4         main.o
    0x08004c64   0x08004c64   0x00000016   Code   RO         3914    i.getRoot           rb_tree.o
    0x08004c7a   0x08004c7a   0x00000060   Code   RO         3241    i.init_timer        main.o
    0x08004cda   0x08004cda   0x00000034   Code   RO         3915    i.leftRotate        rb_tree.o
    0x08004d0e   0x08004d0e   0x00000002   PAD
    0x08004d10   0x08004d10   0x000006f4   Code   RO         3242    i.main              main.o
    0x08005404   0x08005404   0x00000074   Code   RO         3860    i.memory_pool_init  heap_solution_1.o
    0x08005478   0x08005478   0x00000012   Code   RO         3916    i.rbDelete          rb_tree.o
    0x0800548a   0x0800548a   0x00000076   Code   RO         3917    i.rbInsert          rb_tree.o
    0x08005500   0x08005500   0x00000034   Code   RO         3918    i.rightRotate       rb_tree.o
    0x08005534   0x08005534   0x00000022   Code   RO         3919    i.rotateLeft        rb_tree.o
    0x08005556   0x08005556   0x00000022   Code   RO         3920    i.rotateRight       rb_tree.o
    0x08005578   0x08005578   0x00000022   Code   RO         3921    i.search            rb_tree.o
    0x0800559a   0x0800559a   0x0000004c   Code   RO         5155    i.sqrt              m_ws.l(sqrt.o)
    0x080055e6   0x080055e6   0x00000002   PAD
    0x080055e8   0x080055e8   0x00000064   Code   RO         5163    i.tan               m_ws.l(tan.o)
    0x0800564c   0x0800564c   0x0000001c   Code   RO         4128    i.vector_Create     vector.o
    0x08005668   0x08005668   0x00000012   Code   RO         4130    i.vector_Magnitude  vector.o
    0x0800567a   0x0800567a   0x0000003e   Code   RO         4131    i.vector_MagnitudeSquare  vector.o
    0x080056b8   0x080056b8   0x000000f0   Code   RO         4133    i.vector_Normalize  vector.o
    0x080057a8   0x080057a8   0x00000070   Code   RO         4134    i.vector_Scalar_Div  vector.o
    0x08005818   0x08005818   0x0000001c   Code   RO         3861    i.verifyBlock       heap_solution_1.o
    0x08005834   0x08005834   0x00000062   Code   RO         5088    x$fpl$d2f           fz_ws.l(d2f.o)
    0x08005896   0x08005896   0x00000002   PAD
    0x08005898   0x08005898   0x00000150   Code   RO         5090    x$fpl$dadd          fz_ws.l(daddsub_clz.o)
    0x080059e8   0x080059e8   0x00000010   Code   RO         5270    x$fpl$dcheck1       fz_ws.l(dcheck1.o)
    0x080059f8   0x080059f8   0x00000018   Code   RO         5180    x$fpl$dcmpinf       fz_ws.l(dcmpi.o)
    0x08005a10   0x08005a10   0x000002b0   Code   RO         5097    x$fpl$ddiv          fz_ws.l(ddiv.o)
    0x08005cc0   0x08005cc0   0x00000078   Code   RO         5100    x$fpl$deqf          fz_ws.l(deqf.o)
    0x08005d38   0x08005d38   0x0000005e   Code   RO         5102    x$fpl$dfix          fz_ws.l(dfix.o)
    0x08005d96   0x08005d96   0x0000002e   Code   RO         5107    x$fpl$dflt          fz_ws.l(dflt_clz.o)
    0x08005dc4   0x08005dc4   0x00000026   Code   RO         5106    x$fpl$dfltu         fz_ws.l(dflt_clz.o)
    0x08005dea   0x08005dea   0x00000002   PAD
    0x08005dec   0x08005dec   0x00000078   Code   RO         5112    x$fpl$dleqf         fz_ws.l(dleqf.o)
    0x08005e64   0x08005e64   0x00000154   Code   RO         5114    x$fpl$dmul          fz_ws.l(dmul.o)
    0x08005fb8   0x08005fb8   0x0000009c   Code   RO         5182    x$fpl$dnaninf       fz_ws.l(dnaninf.o)
    0x08006054   0x08006054   0x0000000c   Code   RO         5184    x$fpl$dretinf       fz_ws.l(dretinf.o)
    0x08006060   0x08006060   0x0000006c   Code   RO         5116    x$fpl$drleqf        fz_ws.l(drleqf.o)
    0x080060cc   0x080060cc   0x00000016   Code   RO         5091    x$fpl$drsb          fz_ws.l(daddsub_clz.o)
    0x080060e2   0x080060e2   0x00000002   PAD
    0x080060e4   0x080060e4   0x000001cc   Code   RO         5186    x$fpl$dsqrt         fz_ws.l(dsqrt_noumaal.o)
    0x080062b0   0x080062b0   0x000001d4   Code   RO         5092    x$fpl$dsub          fz_ws.l(daddsub_clz.o)
    0x08006484   0x08006484   0x000000c4   Code   RO         5118    x$fpl$fadd          fz_ws.l(faddsub_clz.o)
    0x08006548   0x08006548   0x00000018   Code   RO         5188    x$fpl$fcmpinf       fz_ws.l(fcmpi.o)
    0x08006560   0x08006560   0x00000184   Code   RO         5125    x$fpl$fdiv          fz_ws.l(fdiv.o)
    0x080066e4   0x080066e4   0x00000026   Code   RO         5128    x$fpl$ffltu         fz_ws.l(fflt_clz.o)
    0x0800670a   0x0800670a   0x00000002   PAD
    0x0800670c   0x0800670c   0x00000068   Code   RO         5134    x$fpl$fleqf         fz_ws.l(fleqf.o)
    0x08006774   0x08006774   0x0000008c   Code   RO         5190    x$fpl$fnaninf       fz_ws.l(fnaninf.o)
    0x08006800   0x08006800   0x0000000a   Code   RO         5192    x$fpl$fretinf       fz_ws.l(fretinf.o)
    0x0800680a   0x0800680a   0x00000062   Code   RO         5136    x$fpl$frleqf        fz_ws.l(frleqf.o)
    0x0800686c   0x0800686c   0x000000ea   Code   RO         5120    x$fpl$fsub          fz_ws.l(faddsub_clz.o)
    0x08006956   0x08006956   0x00000064   Code   RO         5319    x$fpl$retnan        fz_ws.l(retnan.o)
    0x080069ba   0x080069ba   0x0000005c   Code   RO         5251    x$fpl$scalbn        fz_ws.l(scalbn.o)
    0x08006a16   0x08006a16   0x00000030   Code   RO         5332    x$fpl$trapveneer    fz_ws.l(trapv.o)
    0x08006a46   0x08006a46   0x00000000   Code   RO         5194    x$fpl$usenofp       fz_ws.l(usenofp.o)
    0x08006a46   0x08006a46   0x0000031c   Data   RO         3244    .constdata          main.o
    0x08006d62   0x08006d62   0x00002a70   Data   RO         3490    .constdata          animation.o
    0x080097d2   0x080097d2   0x000005f0   Data   RO         5038    .constdata          mistink_font.o
    0x08009dc2   0x08009dc2   0x00000006   PAD
    0x08009dc8   0x08009dc8   0x000000c8   Data   RO         5214    .constdata          m_ws.l(rred.o)
    0x08009e90   0x08009e90   0x00000060   Data   RO         5224    .constdata          m_ws.l(tan_i.o)
    0x08009ef0   0x08009ef0   0x00000020   Data   RO         5400    Region$$Table       anon$$obj.o


    Execution Region RW_IRAM1 (Exec base: 0x20000000, Load base: 0x08009f10, Size: 0x00003100, Max: 0x00005000, ABSOLUTE, COMPRESSED[0x00000058])

    Exec Addr    Load Addr    Size         Type   Attr      Idx    E Section Name        Object

    0x20000000   COMPRESSED   0x00000260   Data   RW         3245    .data               main.o
    0x20000260   COMPRESSED   0x0000000c   Data   RW         3575    .data               camera.o
    0x2000026c   COMPRESSED   0x00000008   Data   RW         3794    .data               canvas.o
    0x20000274   COMPRESSED   0x00000008   Data   RW         3863    .data               heap_solution_1.o
    0x2000027c   COMPRESSED   0x00000004   Data   RW         4048    .data               texturemapper.o
    0x20000280   COMPRESSED   0x00000008   Data   RW         4207    .data               worldmap.o
    0x20000288   COMPRESSED   0x00000004   Data   RW         4357    .data               frameratestrategy.o
    0x2000028c   COMPRESSED   0x00000008   Data   RW         4413    .data               sprites_animation.o
    0x20000294   COMPRESSED   0x00000008   Data   RW         4541    .data               sprites_logical.o
    0x2000029c   COMPRESSED   0x00000004   Data   RW         4748    .data               sprites_behaviortree.o
    0x200002a0        -       0x00002800   Zero   RW         3862    .bss                heap_solution_1.o
    0x20002aa0        -       0x00000060   Zero   RW         5258    .bss                c_w.l(libspace.o)
    0x20002b00        -       0x00000200   Zero   RW            2    HEAP                startup_stm32f10x_md.o
    0x20002d00        -       0x00000400   Zero   RW            1    STACK               startup_stm32f10x_md.o


==============================================================================

Image component sizes


      Code (inc. data)   RO Data    RW Data    ZI Data      Debug   Object Name

         0          0      10864          0          0       3361   animation.o
        76          0          0          0          0       1333   bit_operate.o
      3078         74          0         12          0      17421   camera.o
       258         22          0          8          0       3486   canvas.o
        40          0          0          0          0       1564   ceruleanbird.o
         0          0          0          0          0       4548   core_cm3.o
        16          0          0          0          0       1970   enginefault.o
       376         34          0          4          0       3488   frameratestrategy.o
       800         20          0          8      10240       6818   heap_solution_1.o
       654         24          0          0          0       3353   m_stm32f103c8t6.o
      3668        534        796        608          0      24902   main.o
       112         12          0          0          0     204344   misc.o
       528         10          0          0          0       7318   mistink.o
       108          0          0          0          0       1934   mistink_displayer.o
         0          0       1520          0          0        613   mistink_font.o
      1352          0          0          0          0      14262   rb_tree.o
      1130         22          0          8          0       7645   sprites_animation.o
      1718         34          0          4          0      12813   sprites_behaviortree.o
      3474         96          0          8          0      22489   sprites_logical.o
        64         26        236          0       1536        836   startup_stm32f10x_md.o
         0          0          0          0          0       1668   stm32f10x_adc.o
       286          0          0          0          0      11260   stm32f10x_gpio.o
        26          0          0          0          0       3846   stm32f10x_it.o
        64         12          0          0          0       1098   stm32f10x_rcc.o
       106          0          0          0          0      10048   stm32f10x_spi.o
       256         42          0          0          0      24748   stm32f10x_tim.o
       328         28          0          0          0      37453   system_stm32f10x.o
       254         10          0          4          0       3332   texturemapper.o
       460         16          0          0          0       3683   vector.o
       170         20          0          8          0       3580   worldmap.o

    ----------------------------------------------------------------------
     19436       1036      13454        672      11776     445214   Object Totals
         0          0         32          0          0          0   (incl. Generated)
        34          0          6          0          0          0   (incl. Padding)

    ----------------------------------------------------------------------

      Code (inc. data)   RO Data    RW Data    ZI Data      Debug   Library Member Name

        90          0          0          0          0          0   __dczerorl2.o
         8          0          0          0          0         68   __main.o
       104          0          0          0          0         84   __printf.o
         0          0          0          0          0          0   __rtentry.o
        12          0          0          0          0          0   __rtentry2.o
         6          0          0          0          0          0   __rtentry4.o
        52          8          0          0          0          0   __scatter.o
        28          0          0          0          0          0   __scatter_zi.o
        48          6          0          0          0         96   _printf_char_common.o
         6          0          0          0          0          0   _printf_d.o
       120         16          0          0          0         92   _printf_dec.o
       178          0          0          0          0         88   _printf_intcommon.o
         0          0          0          0          0          0   _printf_percent.o
         4          0          0          0          0          0   _printf_percent_end.o
        22          0          0          0          0        100   _rserrno.o
        10          0          0          0          0         68   _sputc.o
        18          0          0          0          0         80   exit.o
         6          0          0          0          0        152   heapauxi.o
         0          0          0          0          0          0   indicate_semi.o
         2          0          0          0          0          0   libinit.o
         2          0          0          0          0          0   libinit2.o
         2          0          0          0          0          0   libshutdown.o
         2          0          0          0          0          0   libshutdown2.o
         8          4          0          0         96         68   libspace.o
        40          6          0          0          0         84   noretval__2sprintf.o
         8          4          0          0          0         68   rt_errno_addr_intlibspace.o
         2          0          0          0          0          0   rtexit.o
        10          0          0          0          0          0   rtexit2.o
        62          0          0          0          0         76   strlen.o
        12          4          0          0          0         68   sys_exit.o
        74          0          0          0          0         80   sys_stackheap_outer.o
         2          0          0          0          0         68   use_no_semi.o
        98          4          0          0          0         92   d2f.o
       826         16          0          0          0        348   daddsub_clz.o
        16          4          0          0          0         68   dcheck1.o
        24          0          0          0          0         68   dcmpi.o
       688        140          0          0          0        208   ddiv.o
       120          4          0          0          0         92   deqf.o
        94          4          0          0          0         92   dfix.o
        84          0          0          0          0        136   dflt_clz.o
       120          4          0          0          0         92   dleqf.o
       340         12          0          0          0        104   dmul.o
       156          4          0          0          0         92   dnaninf.o
        12          0          0          0          0         68   dretinf.o
       108          0          0          0          0         80   drleqf.o
       460         56          0          0          0        120   dsqrt_noumaal.o
       430          8          0          0          0        168   faddsub_clz.o
        24          0          0          0          0         68   fcmpi.o
       388         76          0          0          0         96   fdiv.o
        38          0          0          0          0         68   fflt_clz.o
       104          4          0          0          0         84   fleqf.o
       140          4          0          0          0         84   fnaninf.o
        10          0          0          0          0         68   fretinf.o
        98          0          0          0          0         68   frleqf.o
       100          0          0          0          0         68   retnan.o
        92          0          0          0          0         68   scalbn.o
        48          0          0          0          0         68   trapv.o
         0          0          0          0          0          0   usenofp.o
        34          6          0          0          0        204   dunder.o
        40          0          0          0          0         68   fpclassify.o
       170          0          0          0          0         96   poly.o
       904         76        200          0          0        140   rred.o
        76          0          0          0          0         84   sqrt.o
       100         10          0          0          0         96   tan.o
       636         50         96          0          0        168   tan_i.o

    ----------------------------------------------------------------------
      7534        530        296          0         96       4764   Library Totals
        18          0          0          0          0          0   (incl. Padding)

    ----------------------------------------------------------------------

      Code (inc. data)   RO Data    RW Data    ZI Data      Debug   Library Name

       938         48          0          0         96       1340   c_w.l
      4618        340          0          0          0       2568   fz_ws.l
      1960        142        296          0          0        856   m_ws.l

    ----------------------------------------------------------------------
      7534        530        296          0         96       4764   Library Totals

    ----------------------------------------------------------------------

==============================================================================


      Code (inc. data)   RO Data    RW Data    ZI Data      Debug   

     26970       1566      13750        672      11872     438794   Grand Totals
     26970       1566      13750         88      11872     438794   ELF Image Totals (compressed)
     26970       1566      13750         88          0          0   ROM Totals

==============================================================================

    Total RO  Size (Code + RO Data)                40720 (  39.77kB)
    Total RW  Size (RW Data + ZI Data)             12544 (  12.25kB)
    Total ROM Size (Code + RO Data + RW Data)      40808 (  39.85kB)

==============================================================================

